libvma.so.8:_Z11check_debugv
libvma.so.8:_Z11poll_helperP6pollfdmiPK10__sigset_t
libvma.so.8:_Z11sys_jiffiesv
libvma.so.8:_Z12handle_closeibb
libvma.so.8:_Z12prepare_forkv
libvma.so.8:_Z12safe_mce_sysv
libvma.so.8:_Z12should_writev
libvma.so.8:_Z13link_callbackP8nl_cacheP9nl_objectiPv
libvma.so.8:_Z13nl_msg_rcv_cbP6nl_msgPv
libvma.so.8:_Z13reset_globalsv
libvma.so.8:_Z13select_helperiP6fd_setS0_S0_P7timevalPK10__sigset_t
libvma.so.8:_Z13sprintf_fdsetPciiP6fd_set
libvma.so.8:_Z14compare_doubledd
libvma.so.8:_Z14dbg_send_mcpktv
libvma.so.8:_Z14get_orig_funcsv
libvma.so.8:_Z14neigh_callbackP8nl_cacheP9nl_objectiPv
libvma.so.8:_Z14priv_read_filePKcPcm13vlog_levels_t
libvma.so.8:_Z14route_callbackP8nl_cacheP9nl_objectiPv
libvma.so.8:_Z14set_env_paramsv
libvma.so.8:_Z14set_ib_arp_hdrP10ib_arp_hdrjjPKhS2_
libvma.so.8:_Z15check_cpu_speedv
libvma.so.8:_Z15do_global_ctorsv
libvma.so.8:_Z15set_eth_arp_hdrP11eth_arp_hdrjjPKhS2_
libvma.so.8:_Z15socket_internaliiib
libvma.so.8:_Z15thread_mode_str13thread_mode_t
libvma.so.8:_Z16check_locked_memv
libvma.so.8:_Z16get_lwip_tcp_mssjj
libvma.so.8:_Z16get_netvsc_slavePKcPcRj
libvma.so.8:_Z16memcpy_fromiovecPhPK5iovecmmm
libvma.so.8:_Z16netmask_bitcountj
libvma.so.8:_Z16print_full_statsP14socket_stats_tP13mc_grp_info_tP8_IO_FILE
libvma.so.8:_Z16read_file_to_intPKci
libvma.so.8:_Z16sprintf_sockaddrPciPK8sockaddrj
libvma.so.8:_Z16vma_epoll_createii
libvma.so.8:_Z17get_local_ll_addrPKcPhib
libvma.so.8:_Z17set_fd_block_modeib
libvma.so.8:_Z18check_device_existPKcS0_
libvma.so.8:_Z18get_ifinfo_from_ipRK8sockaddrPcRj
libvma.so.8:_Z18get_sys_max_fd_numi
libvma.so.8:_Z18print_netstat_likeP14socket_stats_tP13mc_grp_info_tP8_IO_FILEi
libvma.so.8:_Z18timer_req_type_str16timer_req_type_t
libvma.so.8:_Z18to_str_socket_typei
libvma.so.8:_Z18vma_ib_mlx5_get_cqP6ibv_cqP14vma_ib_mlx5_cq
libvma.so.8:_Z18vma_ib_mlx5_get_qpP6ibv_qpP14vma_ib_mlx5_qpj
libvma.so.8:_Z18vma_rdma_lib_resetv
libvma.so.8:_Z19Floyd_LogCircleInfoP14mem_buf_desc_t
libvma.so.8:_Z19check_netperf_flagsv
libvma.so.8:_Z19compute_ip_checksumPKtj
libvma.so.8:_Z19compute_tx_checksumP14mem_buf_desc_tbb
libvma.so.8:_Z19socket_get_type_stri
libvma.so.8:_Z19validate_ipoib_propPKcjS0_S0_iPcS1_
libvma.so.8:_Z20compute_tcp_checksumPK5iphdrPKt
libvma.so.8:_Z20event_handler_threadPv
libvma.so.8:_Z20get_bond_slave_statePKcPci
libvma.so.8:_Z20get_ipv4_from_ifnamePcP11sockaddr_in
libvma.so.8:_Z20get_port_from_ifnamePKc
libvma.so.8:_Z20priv_igmp_type_tostrh
libvma.so.8:_Z20vma_shmem_stats_openPP13vlog_levels_tPPh
libvma.so.8:_Z21check_if_regular_filePc
libvma.so.8:_Z21get_ipv4_from_ifindexiP11sockaddr_in
libvma.so.8:_Z21get_ofed_version_infoPci
libvma.so.8:_Z21nl_socket_handle_freeP7nl_sock
libvma.so.8:_Z21register_handler_segvv
libvma.so.8:_Z21socket_get_domain_stri
libvma.so.8:_Z21vma_ib_mlx5_post_recvP14vma_ib_mlx5_qpP11ibv_recv_wrPS2_
libvma.so.8:_Z21vma_shmem_stats_closev
libvma.so.8:_Z22get_if_mtu_from_ifnamePKc
libvma.so.8:_Z22get_iftype_from_ifnamePKc
libvma.so.8:_Z22nl_socket_handle_allocv
libvma.so.8:_Z22priv_ibv_wc_status_str13ibv_wc_status
libvma.so.8:_Z22vma_ib_mlx5dv_init_objP10mlx5dv_objm
libvma.so.8:_Z22vma_stats_mc_group_addjP14socket_stats_t
libvma.so.8:_Z23compute_udp_checksum_rxPK5iphdrPK6udphdrP14mem_buf_desc_t
libvma.so.8:_Z23get_base_interface_namePKcPcm
libvma.so.8:_Z23get_vlan_id_from_ifnamePKc
libvma.so.8:_Z23priv_ibv_event_desc_str14ibv_event_type
libvma.so.8:_Z23priv_ibv_port_state_str14ibv_port_state
libvma.so.8:_Z23priv_ibv_query_qp_stateP6ibv_qp
libvma.so.8:_Z24buffer_batching_mode_str22buffer_batching_mode_t
libvma.so.8:_Z24get_cq_mgr_from_cq_eventP16ibv_comp_channel
libvma.so.8:_Z24get_interface_oper_statePKcPci
libvma.so.8:_Z24priv_ibv_find_pkey_indexP11ibv_contexthtPt
libvma.so.8:_Z24setsockopt_ip_opt_to_stri
libvma.so.8:_Z25check_bond_roce_lag_existPciPKc
libvma.so.8:_Z25check_device_name_ib_namePKcS0_
libvma.so.8:_Z25check_netvsc_device_existPKc
libvma.so.8:_Z25get_address_port_rule_strPcS_P17address_port_rule
libvma.so.8:_Z25get_bond_slaves_name_listPKcPci
libvma.so.8:_Z25get_window_scaling_factorii
libvma.so.8:_Z25print_vma_global_settingsv
libvma.so.8:_Z25priv_ibv_modify_qp_to_errP6ibv_qp
libvma.so.8:_Z25validate_raw_qp_privligesv
libvma.so.8:_Z25vma_ib_mlx5_req_notify_cqP14vma_ib_mlx5_cqi
libvma.so.8:_Z25vma_stats_mc_group_removejP14socket_stats_t
libvma.so.8:_Z26get_bond_active_slave_namePKcPci
libvma.so.8:_Z26iphdr_protocol_type_to_stri
libvma.so.8:_Z26print_netstat_like_headersP8_IO_FILE
libvma.so.8:_Z27priv_ibv_modify_qp_to_resetP6ibv_qp
libvma.so.8:_Z28nl_cache_mngr_compatible_addP13nl_cache_mngrPKcPFvP8nl_cacheP9nl_objectiPvES7_PS4_
libvma.so.8:_Z28nl_object_get_compatible_oifP10rtnl_route
libvma.so.8:_Z28priv_ibv_modify_qp_ratelimitP6ibv_qpR16vma_rate_limit_tj
libvma.so.8:_Z29priv_ibv_modify_cq_moderationP6ibv_cqjj
libvma.so.8:_Z30get_vlan_base_name_from_ifnamePKcPcm
libvma.so.8:_Z30nl_cache_mngr_compatible_allocP7nl_sockii
libvma.so.8:_Z30priv_ibv_create_flow_supportedP6ibv_qph
libvma.so.8:_Z30write_version_details_to_shmemP14version_info_t
libvma.so.8:_Z31dbg_check_if_need_to_send_mcpktv
libvma.so.8:_Z31nl_object_get_compatible_metricP10rtnl_routei
libvma.so.8:_Z31run_and_retreive_system_commandPKcPci
libvma.so.8:_Z31to_str_socket_type_netstat_likei
libvma.so.8:_Z32nl_object_get_compatible_gatewayP10rtnl_route
libvma.so.8:_Z33priv_ibv_query_flow_tag_supportedP6ibv_qph
libvma.so.8:_Z33vma_stats_instance_get_poll_blockP18iomux_func_stats_t
libvma.so.8:_Z34nl_socket_handle_disable_seq_checkP7nl_sock
libvma.so.8:_Z34vma_stats_instance_create_cq_blockP10cq_stats_t
libvma.so.8:_Z34vma_stats_instance_remove_cq_blockP10cq_stats_t
libvma.so.8:_Z35priv_ibv_modify_qp_from_init_to_rtsP6ibv_qpj
libvma.so.8:_Z35vma_stats_instance_get_select_blockP18iomux_func_stats_t
libvma.so.8:_Z36vma_stats_instance_create_ring_blockP12ring_stats_t
libvma.so.8:_Z36vma_stats_instance_remove_ring_blockP12ring_stats_t
libvma.so.8:_Z37vma_stats_instance_create_bpool_blockP13bpool_stats_t
libvma.so.8:_Z37vma_stats_instance_create_epoll_blockiP18iomux_func_stats_t
libvma.so.8:_Z37vma_stats_instance_remove_bpool_blockP13bpool_stats_t
libvma.so.8:_Z37vma_stats_instance_remove_epoll_blockP18iomux_func_stats_t
libvma.so.8:_Z38priv_ibv_modify_qp_from_err_to_init_udP6ibv_qphtj
libvma.so.8:_Z38vma_stats_instance_create_socket_blockP14socket_stats_t
libvma.so.8:_Z38vma_stats_instance_remove_socket_blockP14socket_stats_t
libvma.so.8:_Z39priv_ibv_modify_qp_from_err_to_init_rawP6ibv_qph
libvma.so.8:_Z39validate_user_has_cap_net_raw_privligesv
libvma.so.8:_Z42check_flow_steering_log_num_mgm_entry_sizev
libvma.so.8:_Z8fd2inodei
libvma.so.8:_Z8isCircleP14mem_buf_desc_t
libvma.so.8:_ZN10IPoIB_addr11extract_qpnEv
libvma.so.8:_ZN10L2_address3setEPhm
libvma.so.8:_ZN10L2_addressC1EPhm
libvma.so.8:_ZN10L2_addressC2EPhm
libvma.so.8:_ZN10flow_tuple10is_3_tupleEv
libvma.so.8:_ZN10flow_tuple10is_5_tupleEv
libvma.so.8:_ZN10flow_tuple17is_local_loopbackEv
libvma.so.8:_ZN10flow_tuple6is_tcpEv
libvma.so.8:_ZN10flow_tuple7set_strEv
libvma.so.8:_ZN10flow_tuple9is_udp_mcEv
libvma.so.8:_ZN10flow_tuple9is_udp_ucEv
libvma.so.8:_ZN10flow_tupleC1ER9sock_addrS1_13in_protocol_t
libvma.so.8:_ZN10flow_tupleC1ERKS_
libvma.so.8:_ZN10flow_tupleC1Ejtjt13in_protocol_t
libvma.so.8:_ZN10flow_tupleC1Ev
libvma.so.8:_ZN10flow_tupleC2ER9sock_addrS1_13in_protocol_t
libvma.so.8:_ZN10flow_tupleC2ERKS_
libvma.so.8:_ZN10flow_tupleC2Ejtjt13in_protocol_t
libvma.so.8:_ZN10flow_tupleC2Ev
libvma.so.8:_ZN10flow_tupleaSERKS_
libvma.so.8:_ZN10qp_mgr_eth14prepare_ibv_qpER19ibv_qp_init_attr_ex
libvma.so.8:_ZN10qp_mgr_eth24modify_qp_to_ready_stateEv
libvma.so.8:_ZN10ring_slave11generate_idEPhS0_ttjjtt
libvma.so.8:_ZN10ring_slave11generate_idEv
libvma.so.8:_ZN10ring_slave16is_active_memberEPS_i
libvma.so.8:_ZN10ring_slave22inc_tx_retransmissionsEi
libvma.so.8:_ZN10ring_slave7restartEv
libvma.so.8:_ZN10ring_slave9is_memberEPS_
libvma.so.8:_ZN10ring_slave9print_valEv
libvma.so.8:_ZN10ring_slaveC1EiP4ring11ring_type_t
libvma.so.8:_ZN10ring_slaveC2EiP4ring11ring_type_t
libvma.so.8:_ZN10ring_slaveD0Ev
libvma.so.8:_ZN10ring_slaveD1Ev
libvma.so.8:_ZN10ring_slaveD2Ev
libvma.so.8:_ZN10rule_entry7get_valERPSt5dequeIP8rule_valSaIS2_EE
libvma.so.8:_ZN10rule_entryC1E20route_rule_table_key
libvma.so.8:_ZN10rule_entryC2E20route_rule_table_key
libvma.so.8:_ZN11LogDuration5printEv
libvma.so.8:_ZN11LogDurationC1EPKc13vlog_levels_t
libvma.so.8:_ZN11LogDurationC2EPKc13vlog_levels_t
libvma.so.8:_ZN11LogDurationD1Ev
libvma.so.8:_ZN11LogDurationD2Ev
libvma.so.8:_ZN11buffer_pool11put_buffersEP10vma_list_tI14mem_buf_desc_tXadL_ZNS1_18buffer_node_offsetEvEEEm
libvma.so.8:_ZN11buffer_pool12buffersPanicEv
libvma.so.8:_ZN11buffer_pool13print_val_tblEv
libvma.so.8:_ZN11buffer_pool14get_free_countEv
libvma.so.8:_ZN11buffer_pool15register_memoryEP14ib_ctx_handler
libvma.so.8:_ZN11buffer_pool19set_RX_TX_for_statsEb
libvma.so.8:_ZN11buffer_pool23get_buffers_thread_safeER10vma_list_tI14mem_buf_desc_tXadL_ZNS1_18buffer_node_offsetEvEEEP10ring_slavemj
libvma.so.8:_ZN11buffer_pool23put_buffers_thread_safeEP10vma_list_tI14mem_buf_desc_tXadL_ZNS1_18buffer_node_offsetEvEEEm
libvma.so.8:_ZN11buffer_pool23put_buffers_thread_safeEP14mem_buf_desc_t
libvma.so.8:_ZN11buffer_pool24free_rx_lwip_pbuf_customEP4pbuf
libvma.so.8:_ZN11buffer_pool24free_tx_lwip_pbuf_customEP4pbuf
libvma.so.8:_ZN11buffer_pool31find_lkey_by_ib_ctx_thread_safeEP14ib_ctx_handler
libvma.so.8:_ZN11buffer_pool35put_buffers_after_deref_thread_safeEP10vma_list_tI14mem_buf_desc_tXadL_ZNS1_18buffer_node_offsetEvEEE
libvma.so.8:_ZN11buffer_poolC1EmmPFvP4pbufE
libvma.so.8:_ZN11buffer_poolC2EmmPFvP4pbufE
libvma.so.8:_ZN11buffer_poolD1Ev
libvma.so.8:_ZN11buffer_poolD2Ev
libvma.so.8:_ZN11cpu_manager22reserve_cpu_for_threadEmi
libvma.so.8:_ZN11cpu_manager5resetEv
libvma.so.8:_ZN11cpu_managerC1Ev
libvma.so.8:_ZN11cpu_managerC2Ev
libvma.so.8:_ZN11cq_mgr_mlx518drain_and_proccessEPm
libvma.so.8:_ZN11cq_mgr_mlx521process_cq_element_rxEP14mem_buf_desc_tNS_13buff_status_eE
libvma.so.8:_ZN11cq_mgr_mlx522fill_cq_hw_descriptorsER10hw_cq_data
libvma.so.8:_ZN11cq_mgr_mlx527poll_and_process_element_rxEPP14mem_buf_desc_t
libvma.so.8:_ZN11cq_mgr_mlx527poll_and_process_element_rxEPmPv
libvma.so.8:_ZN11cq_mgr_mlx527poll_and_process_element_txEPm
libvma.so.8:_ZN11cq_mgr_mlx533poll_and_process_error_element_rxEP10mlx5_cqe64Pv
libvma.so.8:_ZN11cq_mgr_mlx533poll_and_process_error_element_txEP10mlx5_cqe64Pm
libvma.so.8:_ZN11cq_mgr_mlx54pollERNS_13buff_status_eE
libvma.so.8:_ZN11cq_mgr_mlx58clean_cqEv
libvma.so.8:_ZN11cq_mgr_mlx59add_qp_rxEP6qp_mgr
libvma.so.8:_ZN11cq_mgr_mlx59add_qp_txEP6qp_mgr
libvma.so.8:_ZN11cq_mgr_mlx59del_qp_rxEP6qp_mgr
libvma.so.8:_ZN11cq_mgr_mlx59set_qp_rqEP6qp_mgr
libvma.so.8:_ZN11cq_mgr_mlx5C1EP11ring_simpleP14ib_ctx_handlerjP16ibv_comp_channelbb
libvma.so.8:_ZN11cq_mgr_mlx5C2EP11ring_simpleP14ib_ctx_handlerjP16ibv_comp_channelbb
libvma.so.8:_ZN11cq_mgr_mlx5D0Ev
libvma.so.8:_ZN11cq_mgr_mlx5D1Ev
libvma.so.8:_ZN11cq_mgr_mlx5D2Ev
libvma.so.8:_ZN11io_mux_call13polling_loopsEv
libvma.so.8:_ZN11io_mux_call14blocking_loopsEv
libvma.so.8:_ZN11io_mux_call16immidiate_returnERi
libvma.so.8:_ZN11io_mux_call19handle_os_countdownERi
libvma.so.8:_ZN11io_mux_call25ring_request_notificationEv
libvma.so.8:_ZN11io_mux_call29ring_poll_and_process_elementEv
libvma.so.8:_ZN11io_mux_call46ring_wait_for_notification_and_process_elementEPv
libvma.so.8:_ZN11io_mux_call4callEv
libvma.so.8:_ZN11io_mux_callC1EPiPNS_16offloaded_mode_tEiPK10__sigset_t
libvma.so.8:_ZN11io_mux_callC2EPiPNS_16offloaded_mode_tEiPK10__sigset_t
libvma.so.8:_ZN11loops_timer14time_left_msecEv
libvma.so.8:_ZN11loops_timer5startEv
libvma.so.8:_ZN11loops_timerC1Ev
libvma.so.8:_ZN11loops_timerC2Ev
libvma.so.8:_ZN11mce_sys_var13env_to_cpusetEPcP9cpu_set_t
libvma.so.8:_ZN11mce_sys_var13hex_to_cpusetEPcP9cpu_set_t
libvma.so.8:_ZN11mce_sys_var14get_env_paramsEv
libvma.so.8:_ZN11mce_sys_var14list_to_cpusetEPcP9cpu_set_t
libvma.so.8:_ZN11mce_sys_var15cpuid_hv_vendorEv
libvma.so.8:_ZN11mce_sys_var18check_cpuinfo_flagEPKc
libvma.so.8:_ZN11mce_sys_var26print_vma_load_failure_msgEv
libvma.so.8:_ZN11mce_sys_var26read_env_variable_with_pidEPcmS0_
libvma.so.8:_ZN11mce_sys_var7read_hvEv
libvma.so.8:_ZN11mce_sys_var8cpuid_hvEv
libvma.so.8:_ZN11neigh_entry12is_deletableEv
libvma.so.8:_ZN11neigh_entry13event_handlerENS_7event_tEPv
libvma.so.8:_ZN11neigh_entry13get_peer_infoEP9neigh_val
libvma.so.8:_ZN11neigh_entry13post_send_tcpEP15neigh_send_data
libvma.so.8:_ZN11neigh_entry13post_send_udpEP15neigh_send_data
libvma.so.8:_ZN11neigh_entry15priv_enter_initEv
libvma.so.8:_ZN11neigh_entry16general_st_entryERK9sm_info_t
libvma.so.8:_ZN11neigh_entry16general_st_leaveERK9sm_info_t
libvma.so.8:_ZN11neigh_entry16post_send_packetEP15neigh_send_data
libvma.so.8:_ZN11neigh_entry16print_event_infoEiiPv
libvma.so.8:_ZN11neigh_entry16priv_enter_errorEv
libvma.so.8:_ZN11neigh_entry16priv_enter_readyEv
libvma.so.8:_ZN11neigh_entry17dofunc_enter_initERK9sm_info_t
libvma.so.8:_ZN11neigh_entry17priv_get_neigh_l2ERPh
libvma.so.8:_ZN11neigh_entry17register_observerEPK8observer
libvma.so.8:_ZN11neigh_entry18dofunc_enter_errorERK9sm_info_t
libvma.so.8:_ZN11neigh_entry18dofunc_enter_readyERK9sm_info_t
libvma.so.8:_ZN11neigh_entry18empty_unsent_queueEv
libvma.so.8:_ZN11neigh_entry18handle_neigh_eventEP14neigh_nl_event
libvma.so.8:_ZN11neigh_entry18priv_kick_start_smEv
libvma.so.8:_ZN11neigh_entry18rdma_event_mappingEP13rdma_cm_event
libvma.so.8:_ZN11neigh_entry19priv_destroy_cma_idEv
libvma.so.8:_ZN11neigh_entry20handle_timer_expiredEPv
libvma.so.8:_ZN11neigh_entry20priv_get_neigh_stateERi
libvma.so.8:_ZN11neigh_entry21priv_enter_not_activeEv
libvma.so.8:_ZN11neigh_entry21priv_general_st_entryERK9sm_info_t
libvma.so.8:_ZN11neigh_entry21priv_general_st_leaveERK9sm_info_t
libvma.so.8:_ZN11neigh_entry21priv_print_event_infoENS_7state_tENS_7event_tE
libvma.so.8:_ZN11neigh_entry21priv_unregister_timerEv
libvma.so.8:_ZN11neigh_entry23dofunc_enter_not_activeERK9sm_info_t
libvma.so.8:_ZN11neigh_entry23handle_event_rdma_cm_cbEP13rdma_cm_event
libvma.so.8:_ZN11neigh_entry24priv_enter_addr_resolvedEv
libvma.so.8:_ZN11neigh_entry25priv_register_timer_eventEiP13timer_handler16timer_req_type_tPv
libvma.so.8:_ZN11neigh_entry26dofunc_enter_addr_resolvedERK9sm_info_t
libvma.so.8:_ZN11neigh_entry26priv_enter_init_resolutionEv
libvma.so.8:_ZN11neigh_entry27priv_event_handler_no_locksENS_7event_tEPv
libvma.so.8:_ZN11neigh_entry28dofunc_enter_init_resolutionERK9sm_info_t
libvma.so.8:_ZN11neigh_entry33priv_handle_neigh_reachable_eventEv
libvma.so.8:_ZN11neigh_entry4sendER15neigh_send_info
libvma.so.8:_ZN11neigh_entry8send_arpEv
libvma.so.8:_ZN11neigh_entry9clean_objEv
libvma.so.8:_ZN11neigh_entryC1E9neigh_key16transport_type_tb
libvma.so.8:_ZN11neigh_entryC2E9neigh_key16transport_type_tb
libvma.so.8:_ZN11neigh_entryD0Ev
libvma.so.8:_ZN11neigh_entryD1Ev
libvma.so.8:_ZN11neigh_entryD2Ev
libvma.so.8:_ZN11ring_simple11attach_flowER10flow_tupleP13pkt_rcvr_sink
libvma.so.8:_ZN11ring_simple11detach_flowER10flow_tupleP13pkt_rcvr_sink
libvma.so.8:_ZN11ring_simple14mem_buf_tx_getEibi
libvma.so.8:_ZN11ring_simple15init_tx_buffersEj
libvma.so.8:_ZN11ring_simple16create_resourcesEv
libvma.so.8:_ZN11ring_simple16flow_tcp_del_allEv
libvma.so.8:_ZN11ring_simple16flow_udp_del_allEv
libvma.so.8:_ZN11ring_simple16modify_ratelimitER16vma_rate_limit_t
libvma.so.8:_ZN11ring_simple16send_lwip_bufferEiP11ibv_send_wr21vma_wr_tx_packet_attr
libvma.so.8:_ZN11ring_simple16send_ring_bufferEiP11ibv_send_wr21vma_wr_tx_packet_attr
libvma.so.8:_ZN11ring_simple17get_max_tx_inlineEv
libvma.so.8:_ZN11ring_simple17rx_process_bufferEP14mem_buf_desc_tPv
libvma.so.8:_ZN11ring_simple17socketxtreme_pollEP16vma_completion_tji
libvma.so.8:_ZN11ring_simple18drain_and_proccessEv
libvma.so.8:_ZN11ring_simple18is_available_qp_wrEb
libvma.so.8:_ZN11ring_simple18mem_buf_tx_releaseEP14mem_buf_desc_tbb
libvma.so.8:_ZN11ring_simple18stop_active_qp_mgrEv
libvma.so.8:_ZN11ring_simple19adapt_cq_moderationEv
libvma.so.8:_ZN11ring_simple19start_active_qp_mgrEv
libvma.so.8:_ZN11ring_simple20get_ring_descriptorsER22vma_mlx_hw_device_data
libvma.so.8:_ZN11ring_simple20modify_cq_moderationEjj
libvma.so.8:_ZN11ring_simple20reclaim_recv_buffersEP10vma_list_tI14mem_buf_desc_tXadL_ZNS1_18buffer_node_offsetEvEEE
libvma.so.8:_ZN11ring_simple20reclaim_recv_buffersEP14mem_buf_desc_t
libvma.so.8:_ZN11ring_simple20request_notificationE9cq_type_tm
libvma.so.8:_ZN11ring_simple23request_more_tx_buffersEj
libvma.so.8:_ZN11ring_simple25get_hw_dummy_send_supportEiP11ibv_send_wr
libvma.so.8:_ZN11ring_simple26reclaim_recv_single_bufferEP14mem_buf_desc_t
libvma.so.8:_ZN11ring_simple27poll_and_process_element_rxEPmPv
libvma.so.8:_ZN11ring_simple28reclaim_recv_buffers_no_lockEP14mem_buf_desc_t
libvma.so.8:_ZN11ring_simple31mem_buf_desc_return_to_owner_rxEP14mem_buf_desc_tPv
libvma.so.8:_ZN11ring_simple31mem_buf_desc_return_to_owner_txEP14mem_buf_desc_t
libvma.so.8:_ZN11ring_simple37mem_buf_desc_completion_with_error_rxEP14mem_buf_desc_t
libvma.so.8:_ZN11ring_simple37mem_buf_desc_completion_with_error_txEP14mem_buf_desc_t
libvma.so.8:_ZN11ring_simple38mem_buf_desc_return_single_to_owner_txEP14mem_buf_desc_t
libvma.so.8:_ZN11ring_simple41wait_for_notification_and_process_elementEiPmPv
libvma.so.8:_ZN11ring_simple5is_upEv
libvma.so.8:_ZN11ring_simpleC1EiP4ring11ring_type_t
libvma.so.8:_ZN11ring_simpleC2EiP4ring11ring_type_t
libvma.so.8:_ZN11ring_simpleD0Ev
libvma.so.8:_ZN11ring_simpleD1Ev
libvma.so.8:_ZN11ring_simpleD2Ev
libvma.so.8:_ZN11route_entry22register_to_net_deviceEv
libvma.so.8:_ZN11route_entry24unregister_to_net_deviceEv
libvma.so.8:_ZN11route_entry7get_valERP9route_val
libvma.so.8:_ZN11route_entry7set_strEv
libvma.so.8:_ZN11route_entry7set_valERP9route_val
libvma.so.8:_ZN11route_entry9notify_cbEv
libvma.so.8:_ZN11route_entryC1E20route_rule_table_key
libvma.so.8:_ZN11route_entryC2E20route_rule_table_key
libvma.so.8:_ZN11route_entryD0Ev
libvma.so.8:_ZN11route_entryD1Ev
libvma.so.8:_ZN11route_entryD2Ev
libvma.so.8:_ZN11select_call10is_timeoutERK7timeval
libvma.so.8:_ZN11select_call13set_efd_readyEii
libvma.so.8:_ZN11select_call13set_rfd_readyEi
libvma.so.8:_ZN11select_call13set_wfd_readyEi
libvma.so.8:_ZN11select_call15prepare_to_pollEv
libvma.so.8:_ZN11select_call16prepare_to_blockEv
libvma.so.8:_ZN11select_call23set_offloaded_rfd_readyEi
libvma.so.8:_ZN11select_call23set_offloaded_wfd_readyEi
libvma.so.8:_ZN11select_call4waitERK7timeval
libvma.so.8:_ZN11select_call7wait_osEb
libvma.so.8:_ZN11select_callC1EPiPN11io_mux_call16offloaded_mode_tEiP6fd_setS5_S5_P7timevalPK10__sigset_t
libvma.so.8:_ZN11select_callC2EPiPN11io_mux_call16offloaded_mode_tEiP6fd_setS5_S5_P7timevalPK10__sigset_t
libvma.so.8:_ZN11wakeup_pipe16remove_wakeup_fdEv
libvma.so.8:_ZN11wakeup_pipe9do_wakeupEv
libvma.so.8:_ZN11wakeup_pipeC1Ev
libvma.so.8:_ZN11wakeup_pipeC2Ev
libvma.so.8:_ZN11wakeup_pipeD0Ev
libvma.so.8:_ZN11wakeup_pipeD1Ev
libvma.so.8:_ZN11wakeup_pipeD2Ev
libvma.so.8:_ZN12data_updaterD0Ev
libvma.so.8:_ZN12data_updaterD1Ev
libvma.so.8:_ZN12data_updaterD2Ev
libvma.so.8:_ZN12igmp_handler12handle_queryEh
libvma.so.8:_ZN12igmp_handler13handle_reportEv
libvma.so.8:_ZN12igmp_handler14tx_igmp_reportEv
libvma.so.8:_ZN12igmp_handler15set_ip_igmp_hdrEP25ip_igmp_tx_hdr_template_t
libvma.so.8:_ZN12igmp_handler20handle_timer_expiredEPv
libvma.so.8:_ZN12igmp_handler25priv_register_timer_eventEP13timer_handler16timer_req_type_tPv
libvma.so.8:_ZN12igmp_handler4initERK9neigh_key
libvma.so.8:_ZN12igmp_handler9clean_objEv
libvma.so.8:_ZN12igmp_handlerC1ERK9neigh_keyh
libvma.so.8:_ZN12igmp_handlerC2ERK9neigh_keyh
libvma.so.8:_ZN12igmp_handlerD0Ev
libvma.so.8:_ZN12igmp_handlerD1Ev
libvma.so.8:_ZN12igmp_handlerD2Ev
libvma.so.8:_ZN12neigh_ib_valaSERK9neigh_val
libvma.so.8:_ZN12ring_bond_ib12slave_createEi
libvma.so.8:_ZN12ring_profile13create_stringEv
libvma.so.8:_ZN12ring_profile21get_vma_ring_type_strEv
libvma.so.8:_ZN12ring_profileC1EPK18vma_ring_type_attr
libvma.so.8:_ZN12ring_profileC1Ev
libvma.so.8:_ZN12ring_profileC2EPK18vma_ring_type_attr
libvma.so.8:_ZN12ring_profileC2Ev
libvma.so.8:_ZN12ring_profileeqERK18vma_ring_type_attr
libvma.so.8:_ZN12sockinfo_tcp10free_buffsEt
libvma.so.8:_ZN12sockinfo_tcp10getsockoptEiiPvPj
libvma.so.8:_ZN12sockinfo_tcp10rx_lwip_cbEPvP7tcp_pcbP4pbufa
libvma.so.8:_ZN12sockinfo_tcp10setsockoptEiiPKvj
libvma.so.8:_ZN12sockinfo_tcp11err_lwip_cbEPva
libvma.so.8:_ZN12sockinfo_tcp11fit_rcv_wndEb
libvma.so.8:_ZN12sockinfo_tcp11force_closeEv
libvma.so.8:_ZN12sockinfo_tcp11getpeernameEP8sockaddrPj
libvma.so.8:_ZN12sockinfo_tcp11getsocknameEP8sockaddrPj
libvma.so.8:_ZN12sockinfo_tcp11post_deqeueEb
libvma.so.8:_ZN12sockinfo_tcp11rx_input_cbEP14mem_buf_desc_tPv
libvma.so.8:_ZN12sockinfo_tcp11unlock_rx_qEv
libvma.so.8:_ZN12sockinfo_tcp12accept_cloneEv
libvma.so.8:_ZN12sockinfo_tcp12fit_snd_bufsEj
libvma.so.8:_ZN12sockinfo_tcp12free_packetsEP12vma_packet_tm
libvma.so.8:_ZN12sockinfo_tcp12tcp_seg_freeEPvP7tcp_seg
libvma.so.8:_ZN12sockinfo_tcp12zero_copy_rxEP5iovecP14mem_buf_desc_tPi
libvma.so.8:_ZN12sockinfo_tcp13accept_helperEP8sockaddrPji
libvma.so.8:_ZN12sockinfo_tcp13clone_conn_cbEPvPP7tcp_pcba
libvma.so.8:_ZN12sockinfo_tcp13get_next_descEP14mem_buf_desc_t
libvma.so.8:_ZN12sockinfo_tcp13get_route_mtuEP7tcp_pcb
libvma.so.8:_ZN12sockinfo_tcp13prepareListenEv
libvma.so.8:_ZN12sockinfo_tcp13put_agent_msgEPv
libvma.so.8:_ZN12sockinfo_tcp13tcp_seg_allocEPv
libvma.so.8:_ZN12sockinfo_tcp14accept_lwip_cbEPvP7tcp_pcba
libvma.so.8:_ZN12sockinfo_tcp14register_timerEv
libvma.so.8:_ZN12sockinfo_tcp14rx_wait_helperERib
libvma.so.8:_ZN12sockinfo_tcp15connect_lwip_cbEPvP7tcp_pcba
libvma.so.8:_ZN12sockinfo_tcp15handle_rx_errorEv
libvma.so.8:_ZN12sockinfo_tcp15rx_drop_lwip_cbEPvP7tcp_pcbP4pbufa
libvma.so.8:_ZN12sockinfo_tcp16abort_connectionEv
libvma.so.8:_ZN12sockinfo_tcp16create_dst_entryEv
libvma.so.8:_ZN12sockinfo_tcp16handle_child_FINEPS_
libvma.so.8:_ZN12sockinfo_tcp16prepare_to_closeEb
libvma.so.8:_ZN12sockinfo_tcp16set_sock_optionsEPS_
libvma.so.8:_ZN12sockinfo_tcp16statistics_printE13vlog_levels_t
libvma.so.8:_ZN12sockinfo_tcp16tcp_tx_pbuf_freeEPvP4pbuf
libvma.so.8:_ZN12sockinfo_tcp17ack_recvd_lwip_cbEPvP7tcp_pcbt
libvma.so.8:_ZN12sockinfo_tcp17ip_output_syn_ackEP4pbufPvih
libvma.so.8:_ZN12sockinfo_tcp17tcp_tx_pbuf_allocEPv
libvma.so.8:_ZN12sockinfo_tcp17try_un_offloadingEv
libvma.so.8:_ZN12sockinfo_tcp18get_next_desc_peekEP14mem_buf_desc_tRi
libvma.so.8:_ZN12sockinfo_tcp18getsockopt_offloadEiiPvPj
libvma.so.8:_ZN12sockinfo_tcp18tcp_state_observerEPv9tcp_state
libvma.so.8:_ZN12sockinfo_tcp19prepare_dst_to_sendEb
libvma.so.8:_ZN12sockinfo_tcp19queue_rx_ctl_packetEP7tcp_pcbP14mem_buf_desc_t
libvma.so.8:_ZN12sockinfo_tcp19update_header_fieldEP12data_updater
libvma.so.8:_ZN12sockinfo_tcp19wait_for_conn_readyEv
libvma.so.8:_ZN12sockinfo_tcp20get_syn_received_pcbEjtjt
libvma.so.8:_ZN12sockinfo_tcp20handle_socket_lingerEv
libvma.so.8:_ZN12sockinfo_tcp20handle_timer_expiredEPv
libvma.so.8:_ZN12sockinfo_tcp20syn_received_lwip_cbEPvP7tcp_pcba
libvma.so.8:_ZN12sockinfo_tcp21fit_snd_bufs_to_nagleEb
libvma.so.8:_ZN12sockinfo_tcp21get_socket_timestampsEv
libvma.so.8:_ZN12sockinfo_tcp22auto_accept_connectionEPS_S0_
libvma.so.8:_ZN12sockinfo_tcp22process_my_ctl_packetsEv
libvma.so.8:_ZN12sockinfo_tcp22process_rx_ctl_packetsEv
libvma.so.8:_ZN12sockinfo_tcp23prepare_listen_to_closeEv
libvma.so.8:_ZN12sockinfo_tcp23rx_request_notificationEm
libvma.so.8:_ZN12sockinfo_tcp24delay_orig_close_to_dtorEv
libvma.so.8:_ZN12sockinfo_tcp24process_peer_ctl_packetsER10vma_list_tI14mem_buf_desc_tXadL_ZNS1_18buffer_node_offsetEvEEE
libvma.so.8:_ZN12sockinfo_tcp24rx_verify_available_dataEv
libvma.so.8:_ZN12sockinfo_tcp25process_reuse_ctl_packetsEv
libvma.so.8:_ZN12sockinfo_tcp25syn_received_drop_lwip_cbEPvP7tcp_pcba
libvma.so.8:_ZN12sockinfo_tcp27check_dummy_send_conditionsEiPK5iovecl
libvma.so.8:_ZN12sockinfo_tcp28get_size_m_rx_pkt_ready_listEv
libvma.so.8:_ZN12sockinfo_tcp28process_children_ctl_packetsEv
libvma.so.8:_ZN12sockinfo_tcp28set_conn_properties_from_pcbEv
libvma.so.8:_ZN12sockinfo_tcp29get_front_m_rx_pkt_ready_listEv
libvma.so.8:_ZN12sockinfo_tcp29pop_front_m_rx_pkt_ready_listEv
libvma.so.8:_ZN12sockinfo_tcp29push_back_m_rx_pkt_ready_listEP14mem_buf_desc_t
libvma.so.8:_ZN12sockinfo_tcp2rxE9rx_call_tP5ioveclPiP8sockaddrPjP6msghdr
libvma.so.8:_ZN12sockinfo_tcp2txE9tx_call_tPK5iovecliPK8sockaddrj
libvma.so.8:_ZN12sockinfo_tcp30create_flow_tuple_key_from_pcbER10flow_tupleP7tcp_pcb
libvma.so.8:_ZN12sockinfo_tcp4bindEPK8sockaddrj
libvma.so.8:_ZN12sockinfo_tcp5fcntlEim
libvma.so.8:_ZN12sockinfo_tcp5ioctlEmm
libvma.so.8:_ZN12sockinfo_tcp6acceptEP8sockaddrPj
libvma.so.8:_ZN12sockinfo_tcp6listenEi
libvma.so.8:_ZN12sockinfo_tcp7accept4EP8sockaddrPji
libvma.so.8:_ZN12sockinfo_tcp7connectEPK8sockaddrj
libvma.so.8:_ZN12sockinfo_tcp7tx_waitERib
libvma.so.8:_ZN12sockinfo_tcp8shutdownEi
libvma.so.8:_ZN12sockinfo_tcp9clean_objEv
libvma.so.8:_ZN12sockinfo_tcp9ip_outputEP4pbufPvih
libvma.so.8:_ZN12sockinfo_tcp9lock_rx_qEv
libvma.so.8:_ZN12sockinfo_tcp9tcp_timerEv
libvma.so.8:_ZN12sockinfo_tcpC1Ei
libvma.so.8:_ZN12sockinfo_tcpC2Ei
libvma.so.8:_ZN12sockinfo_tcpD0Ev
libvma.so.8:_ZN12sockinfo_tcpD1Ev
libvma.so.8:_ZN12sockinfo_tcpD2Ev
libvma.so.8:_ZN12sockinfo_udp10getsockoptEiiPvPj
libvma.so.8:_ZN12sockinfo_udp10setsockoptEiiPKvj
libvma.so.8:_ZN12sockinfo_udp11getsocknameEP8sockaddrPj
libvma.so.8:_ZN12sockinfo_udp11is_readableEPmP10fd_array_t
libvma.so.8:_ZN12sockinfo_udp11post_deqeueEb
libvma.so.8:_ZN12sockinfo_udp12free_packetsEP12vma_packet_tm
libvma.so.8:_ZN12sockinfo_udp12set_blockingEb
libvma.so.8:_ZN12sockinfo_udp12zero_copy_rxEP5iovecP14mem_buf_desc_tPi
libvma.so.8:_ZN12sockinfo_udp13get_next_descEP14mem_buf_desc_t
libvma.so.8:_ZN12sockinfo_udp13set_ring_attrEP25vma_ring_alloc_logic_attr
libvma.so.8:_ZN12sockinfo_udp14rx_add_ring_cbER24flow_tuple_with_local_ifP4ringb
libvma.so.8:_ZN12sockinfo_udp14rx_del_ring_cbER24flow_tuple_with_local_ifP4ringb
libvma.so.8:_ZN12sockinfo_udp16handle_msg_truncEmmiPi
libvma.so.8:_ZN12sockinfo_udp16prepare_to_closeEb
libvma.so.8:_ZN12sockinfo_udp16statistics_printE13vlog_levels_t
libvma.so.8:_ZN12sockinfo_udp17handle_ip_pktinfoEP10cmsg_state
libvma.so.8:_ZN12sockinfo_udp18get_next_desc_peekEP14mem_buf_desc_tRi
libvma.so.8:_ZN12sockinfo_udp18on_sockname_changeEP8sockaddrj
libvma.so.8:_ZN12sockinfo_udp19handle_pending_mreqEv
libvma.so.8:_ZN12sockinfo_udp19update_header_fieldEP12data_updater
libvma.so.8:_ZN12sockinfo_udp20mc_change_membershipEPK15mc_pending_pram
libvma.so.8:_ZN12sockinfo_udp20set_ring_attr_helperEP21ring_alloc_logic_attrP25vma_ring_alloc_logic_attr
libvma.so.8:_ZN12sockinfo_udp21get_socket_timestampsEv
libvma.so.8:_ZN12sockinfo_udp21get_socket_tx_ring_fdEP8sockaddrj
libvma.so.8:_ZN12sockinfo_udp21save_stats_tx_offloadEib
libvma.so.8:_ZN12sockinfo_udp22mc_change_pending_mreqEPK15mc_pending_pram
libvma.so.8:_ZN12sockinfo_udp22save_stats_threadid_rxEv
libvma.so.8:_ZN12sockinfo_udp22save_stats_threadid_txEv
libvma.so.8:_ZN12sockinfo_udp23rx_request_notificationEm
libvma.so.8:_ZN12sockinfo_udp23set_immediate_os_sampleEv
libvma.so.8:_ZN12sockinfo_udp24rx_verify_available_dataEv
libvma.so.8:_ZN12sockinfo_udp25unset_immediate_os_sampleEv
libvma.so.8:_ZN12sockinfo_udp27tx_check_if_would_not_blockEv
libvma.so.8:_ZN12sockinfo_udp28get_size_m_rx_pkt_ready_listEv
libvma.so.8:_ZN12sockinfo_udp29get_front_m_rx_pkt_ready_listEv
libvma.so.8:_ZN12sockinfo_udp29original_os_setsockopt_helperEPvii
libvma.so.8:_ZN12sockinfo_udp29pop_front_m_rx_pkt_ready_listEv
libvma.so.8:_ZN12sockinfo_udp29push_back_m_rx_pkt_ready_listEP14mem_buf_desc_t
libvma.so.8:_ZN12sockinfo_udp2rxE9rx_call_tP5ioveclPiP8sockaddrPjP6msghdr
libvma.so.8:_ZN12sockinfo_udp2txE9tx_call_tPK5iovecliPK8sockaddrj
libvma.so.8:_ZN12sockinfo_udp31mc_change_membership_end_helperEjij
libvma.so.8:_ZN12sockinfo_udp32rx_ready_byte_count_limit_updateEm
libvma.so.8:_ZN12sockinfo_udp33mc_change_membership_start_helperEji
libvma.so.8:_ZN12sockinfo_udp4bindEPK8sockaddrj
libvma.so.8:_ZN12sockinfo_udp7connectEPK8sockaddrj
libvma.so.8:_ZN12sockinfo_udpC1Ei
libvma.so.8:_ZN12sockinfo_udpC2Ei
libvma.so.8:_ZN12sockinfo_udpD0Ev
libvma.so.8:_ZN12sockinfo_udpD1Ev
libvma.so.8:_ZN12sockinfo_udpD2Ev
libvma.so.8:_ZN12tcp_seg_pool12get_tcp_segsEi
libvma.so.8:_ZN12tcp_seg_pool12put_tcp_segsEP7tcp_seg
libvma.so.8:_ZN12tcp_seg_pool18free_tsp_resourcesEv
libvma.so.8:_ZN12tcp_seg_poolC1Ei
libvma.so.8:_ZN12tcp_seg_poolC2Ei
libvma.so.8:_ZN12tcp_seg_poolD0Ev
libvma.so.8:_ZN12tcp_seg_poolD1Ev
libvma.so.8:_ZN12tcp_seg_poolD2Ev
libvma.so.8:_ZN13dst_entry_tcp10get_bufferEb
libvma.so.8:_ZN13dst_entry_tcp10put_bufferEP14mem_buf_desc_t
libvma.so.8:_ZN13dst_entry_tcp13get_transportE11sockaddr_in
libvma.so.8:_ZN13dst_entry_tcp15slow_send_neighEPK5iovecmR16vma_rate_limit_t
libvma.so.8:_ZN13dst_entry_tcp17configure_headersEv
libvma.so.8:_ZN13dst_entry_tcp18pass_buff_to_neighEPK5iovecRmt
libvma.so.8:_ZN13dst_entry_tcp9fast_sendEPK5ioveclbbb
libvma.so.8:_ZN13dst_entry_tcp9slow_sendEPK5iovecmbR16vma_rate_limit_tbbiP13socket_fd_api9tx_call_t
libvma.so.8:_ZN13dst_entry_tcpC1EjttR11socket_dataR21ring_alloc_logic_attr
libvma.so.8:_ZN13dst_entry_tcpC2EjttR11socket_dataR21ring_alloc_logic_attr
libvma.so.8:_ZN13dst_entry_tcpD0Ev
libvma.so.8:_ZN13dst_entry_tcpD1Ev
libvma.so.8:_ZN13dst_entry_tcpD2Ev
libvma.so.8:_ZN13dst_entry_udp13get_transportE11sockaddr_in
libvma.so.8:_ZN13dst_entry_udp17configure_headersEv
libvma.so.8:_ZN13dst_entry_udp18pass_buff_to_neighEPK5iovecRmt
libvma.so.8:_ZN13dst_entry_udp20fast_send_fragmentedEPK5iovecl21vma_wr_tx_packet_attrml
libvma.so.8:_ZN13dst_entry_udp8init_sgeEv
libvma.so.8:_ZN13dst_entry_udp9fast_sendEPK5ioveclbbb
libvma.so.8:_ZN13dst_entry_udp9slow_sendEPK5iovecmbR16vma_rate_limit_tbbiP13socket_fd_api9tx_call_t
libvma.so.8:_ZN13dst_entry_udpC1EjttR11socket_dataR21ring_alloc_logic_attr
libvma.so.8:_ZN13dst_entry_udpC2EjttR11socket_dataR21ring_alloc_logic_attr
libvma.so.8:_ZN13dst_entry_udpD0Ev
libvma.so.8:_ZN13dst_entry_udpD1Ev
libvma.so.8:_ZN13dst_entry_udpD2Ev
libvma.so.8:_ZN13fd_collection10del_sockfdEib
libvma.so.8:_ZN13fd_collection16prepare_to_closeEv
libvma.so.8:_ZN13fd_collection16statistics_printEi13vlog_levels_t
libvma.so.8:_ZN13fd_collection17add_cq_channel_fdEiP4ring
libvma.so.8:_ZN13fd_collection17del_cq_channel_fdEib
libvma.so.8:_ZN13fd_collection20handle_timer_expiredEPv
libvma.so.8:_ZN13fd_collection21remove_epfd_from_listEP9epfd_info
libvma.so.8:_ZN13fd_collection21remove_from_all_epfdsEib
libvma.so.8:_ZN13fd_collection23statistics_print_helperEi13vlog_levels_t
libvma.so.8:_ZN13fd_collection29offloading_rule_change_threadEbm
libvma.so.8:_ZN13fd_collection5clearEv
libvma.so.8:_ZN13fd_collection7addepfdEii
libvma.so.8:_ZN13fd_collection7addpipeEii
libvma.so.8:_ZN13fd_collection8addtapfdEiP8ring_tap
libvma.so.8:_ZN13fd_collection8del_epfdEib
libvma.so.8:_ZN13fd_collection9addsocketEiiib
libvma.so.8:_ZN13fd_collection9del_tapfdEi
libvma.so.8:_ZN13fd_collectionC1Ev
libvma.so.8:_ZN13fd_collectionC2Ev
libvma.so.8:_ZN13fd_collectionD0Ev
libvma.so.8:_ZN13fd_collectionD1Ev
libvma.so.8:_ZN13fd_collectionD2Ev
libvma.so.8:_ZN13link_nl_eventC1EP8nlmsghdrP9rtnl_linkPv
libvma.so.8:_ZN13link_nl_eventC2EP8nlmsghdrP9rtnl_linkPv
libvma.so.8:_ZN13link_nl_eventD0Ev
libvma.so.8:_ZN13link_nl_eventD1Ev
libvma.so.8:_ZN13link_nl_eventD2Ev
libvma.so.8:_ZN13netlink_eventC1EP8nlmsghdrPv
libvma.so.8:_ZN13netlink_eventC2EP8nlmsghdrPv
libvma.so.8:_ZN13ring_bond_eth12slave_createEi
libvma.so.8:_ZN13socket_fd_api10free_buffsEt
libvma.so.8:_ZN13socket_fd_api10getsockoptEiiPvPj
libvma.so.8:_ZN13socket_fd_api10setsockoptEiiPKvj
libvma.so.8:_ZN13socket_fd_api11getpeernameEP8sockaddrPj
libvma.so.8:_ZN13socket_fd_api11getsocknameEP8sockaddrPj
libvma.so.8:_ZN13socket_fd_api11is_readableEPmP10fd_array_t
libvma.so.8:_ZN13socket_fd_api12free_packetsEP12vma_packet_tm
libvma.so.8:_ZN13socket_fd_api12is_errorableEPi
libvma.so.8:_ZN13socket_fd_api12is_writeableEv
libvma.so.8:_ZN13socket_fd_api16statistics_printE13vlog_levels_t
libvma.so.8:_ZN13socket_fd_api17add_epoll_contextEP9epfd_info
libvma.so.8:_ZN13socket_fd_api17destructor_helperEv
libvma.so.8:_ZN13socket_fd_api17register_callbackEPF26vma_recv_callback_retval_timP5iovecP10vma_info_tPvES5_
libvma.so.8:_ZN13socket_fd_api20get_epoll_context_fdEv
libvma.so.8:_ZN13socket_fd_api20notify_epoll_contextEj
libvma.so.8:_ZN13socket_fd_api20remove_epoll_contextEP9epfd_info
libvma.so.8:_ZN13socket_fd_api23rx_request_notificationEm
libvma.so.8:_ZN13socket_fd_api23set_immediate_os_sampleEv
libvma.so.8:_ZN13socket_fd_api25unset_immediate_os_sampleEv
libvma.so.8:_ZN13socket_fd_api27notify_epoll_context_verifyEP9epfd_info
libvma.so.8:_ZN13socket_fd_api29notify_epoll_context_add_ringEP4ring
libvma.so.8:_ZN13socket_fd_api32notify_epoll_context_remove_ringEP4ring
libvma.so.8:_ZN13socket_fd_api36notify_epoll_context_fd_is_offloadedEv
libvma.so.8:_ZN13socket_fd_api4bindEPK8sockaddrj
libvma.so.8:_ZN13socket_fd_api5rx_osE9rx_call_tP5iovecliP8sockaddrPjP6msghdr
libvma.so.8:_ZN13socket_fd_api5tx_osE9tx_call_tPK5iovecliPK8sockaddrj
libvma.so.8:_ZN13socket_fd_api6acceptEP8sockaddrPj
libvma.so.8:_ZN13socket_fd_api6listenEi
libvma.so.8:_ZN13socket_fd_api7accept4EP8sockaddrPji
libvma.so.8:_ZN13socket_fd_api7connectEPK8sockaddrj
libvma.so.8:_ZN13socket_fd_api8shutdownEi
libvma.so.8:_ZN13socket_fd_apiC1Ei
libvma.so.8:_ZN13socket_fd_apiC2Ei
libvma.so.8:_ZN13socket_fd_apiD0Ev
libvma.so.8:_ZN13socket_fd_apiD1Ev
libvma.so.8:_ZN13socket_fd_apiD2Ev
libvma.so.8:_ZN13state_machine13process_eventEiPv
libvma.so.8:_ZN13state_machine14get_curr_stateEv
libvma.so.8:_ZN13state_machine15lock_in_processEiPv
libvma.so.8:_ZN13state_machine17unlock_in_processEv
libvma.so.8:_ZN13state_machine20process_sparse_tableEP21sm_short_table_line_tPFvRK9sm_info_tES6_S6_
libvma.so.8:_ZN13state_machineC1EPviiiP21sm_short_table_line_tPFvRK9sm_info_tES7_S7_PFviiS0_E
libvma.so.8:_ZN13state_machineC2EPviiiP21sm_short_table_line_tPFvRK9sm_info_tES7_S7_PFviiS0_E
libvma.so.8:_ZN13state_machineD1Ev
libvma.so.8:_ZN13state_machineD2Ev
libvma.so.8:_ZN13vma_allocator13hugetlb_allocEm
libvma.so.8:_ZN13vma_allocator15register_memoryEmP14ib_ctx_handlerm
libvma.so.8:_ZN13vma_allocator16alloc_and_reg_mrEmP14ib_ctx_handlerPv
libvma.so.8:_ZN13vma_allocator17deregister_memoryEv
libvma.so.8:_ZN13vma_allocator18hugetlb_mmap_allocEv
libvma.so.8:_ZN13vma_allocator18hugetlb_sysv_allocEv
libvma.so.8:_ZN13vma_allocator19align_simple_mallocEm
libvma.so.8:_ZN13vma_allocatorC1Ev
libvma.so.8:_ZN13vma_allocatorC2Ev
libvma.so.8:_ZN13vma_allocatorD1Ev
libvma.so.8:_ZN13vma_allocatorD2Ev
libvma.so.8:_ZN14ib_ctx_handler11get_mem_regEj
libvma.so.8:_ZN14ib_ctx_handler11post_umr_wrER15ibv_exp_send_wr
libvma.so.8:_ZN14ib_ctx_handler13create_umr_qpEv
libvma.so.8:_ZN14ib_ctx_handler23handle_event_ibverbs_cbEPvS0_
libvma.so.8:_ZN14ib_ctx_handler23set_flow_tag_capabilityEb
libvma.so.8:_ZN14ib_ctx_handler25handle_event_device_fatalEv
libvma.so.8:_ZN14ib_ctx_handler29get_ctx_time_converter_statusEv
libvma.so.8:_ZN14ib_ctx_handler7mem_regEPvmm
libvma.so.8:_ZN14ib_ctx_handler7set_strEv
libvma.so.8:_ZN14ib_ctx_handler9is_activeEi
libvma.so.8:_ZN14ib_ctx_handler9mem_deregEj
libvma.so.8:_ZN14ib_ctx_handler9print_valEv
libvma.so.8:_ZN14ib_ctx_handlerC1EPNS_19ib_ctx_handler_descE
libvma.so.8:_ZN14ib_ctx_handlerC2EPNS_19ib_ctx_handler_descE
libvma.so.8:_ZN14ib_ctx_handlerD0Ev
libvma.so.8:_ZN14ib_ctx_handlerD1Ev
libvma.so.8:_ZN14ib_ctx_handlerD2Ev
libvma.so.8:_ZN14neigh_nl_eventC1EP8nlmsghdrP10rtnl_neighPv
libvma.so.8:_ZN14neigh_nl_eventC2EP8nlmsghdrP10rtnl_neighPv
libvma.so.8:_ZN14neigh_nl_eventD0Ev
libvma.so.8:_ZN14neigh_nl_eventD1Ev
libvma.so.8:_ZN14neigh_nl_eventD2Ev
libvma.so.8:_ZN14net_device_val12release_ringEP21ring_alloc_logic_attr
libvma.so.8:_ZN14net_device_val12reserve_ringEP21ring_alloc_logic_attr
libvma.so.8:_ZN14net_device_val12set_ip_arrayEv
libvma.so.8:_ZN14net_device_val15set_slave_arrayEv
libvma.so.8:_ZN14net_device_val18verify_qp_creationEPKc11ibv_qp_type
libvma.so.8:_ZN14net_device_val19verify_bonding_modeEv
libvma.so.8:_ZN14net_device_val19verify_enable_ipoibEPKc
libvma.so.8:_ZN14net_device_val20update_active_slavesEv
libvma.so.8:_ZN14net_device_val20update_netvsc_slavesEii
libvma.so.8:_ZN14net_device_val23ring_drain_and_proccessEv
libvma.so.8:_ZN14net_device_val24get_priority_by_tc_classEj
libvma.so.8:_ZN14net_device_val24get_ring_key_redirectionEP21ring_alloc_logic_attr
libvma.so.8:_ZN14net_device_val24get_up_and_active_slavesEPbm
libvma.so.8:_ZN14net_device_val24ring_adapt_cq_moderationEv
libvma.so.8:_ZN14net_device_val26register_to_ibverbs_eventsEP21event_handler_ibverbs
libvma.so.8:_ZN14net_device_val27update_active_backup_slavesEv
libvma.so.8:_ZN14net_device_val28ring_key_redirection_releaseEP21ring_alloc_logic_attr
libvma.so.8:_ZN14net_device_val28ring_key_redirection_reserveEP21ring_alloc_logic_attr
libvma.so.8:_ZN14net_device_val28unregister_to_ibverbs_eventsEP21event_handler_ibverbs
libvma.so.8:_ZN14net_device_val31verify_ipoib_or_eth_qp_creationEPKc
libvma.so.8:_ZN14net_device_val32global_ring_request_notificationEm
libvma.so.8:_ZN14net_device_val36global_ring_poll_and_process_elementEPmPv
libvma.so.8:_ZN14net_device_val36verify_bond_ipoib_or_eth_qp_creationEv
libvma.so.8:_ZN14net_device_val6to_strB5cxx11Ev
libvma.so.8:_ZN14net_device_val7set_strEv
libvma.so.8:_ZN14net_device_val9get_slaveEi
libvma.so.8:_ZN14net_device_val9print_valEv
libvma.so.8:_ZN14net_device_valC1EPNS_19net_device_val_descE
libvma.so.8:_ZN14net_device_valC2EPNS_19net_device_val_descE
libvma.so.8:_ZN14net_device_valD0Ev
libvma.so.8:_ZN14net_device_valD1Ev
libvma.so.8:_ZN14net_device_valD2Ev
libvma.so.8:_ZN14rfs_uc_tcp_gro18rx_dispatch_packetEP14mem_buf_desc_tPv
libvma.so.8:_ZN14rfs_uc_tcp_gro5flushEPv
libvma.so.8:_ZN14rfs_uc_tcp_groC1EP10flow_tupleP10ring_slaveP15rfs_rule_filterj
libvma.so.8:_ZN14rfs_uc_tcp_groC2EP10flow_tupleP10ring_slaveP15rfs_rule_filterj
libvma.so.8:_ZN14route_nl_eventC1EP8nlmsghdrP10rtnl_routePv
libvma.so.8:_ZN14route_nl_eventC2EP8nlmsghdrP10rtnl_routePv
libvma.so.8:_ZN14route_nl_eventD0Ev
libvma.so.8:_ZN14route_nl_eventD1Ev
libvma.so.8:_ZN14route_nl_eventD2Ev
libvma.so.8:_ZN14rule_table_mgr10parse_attrEP6rtattrP8rule_val
libvma.so.8:_ZN14rule_table_mgr10update_tblEv
libvma.so.8:_ZN14rule_table_mgr11parse_enrtyEP8nlmsghdrP8rule_val
libvma.so.8:_ZN14rule_table_mgr12rule_resolveE20route_rule_table_keyRSt5dequeIhSaIhEE
libvma.so.8:_ZN14rule_table_mgr12update_entryEP10rule_entry
libvma.so.8:_ZN14rule_table_mgr13find_rule_valE20route_rule_table_keyRPSt5dequeIP8rule_valSaIS3_EE
libvma.so.8:_ZN14rule_table_mgr16create_new_entryE20route_rule_table_keyPK8observer
libvma.so.8:_ZN14rule_table_mgr16is_matching_ruleE20route_rule_table_keyP8rule_val
libvma.so.8:_ZN14rule_table_mgrC1Ev
libvma.so.8:_ZN14rule_table_mgrC2Ev
libvma.so.8:_ZN14time_converter27get_single_converter_statusEP11ibv_context
libvma.so.8:_ZN14time_converter28get_devices_converter_statusEPP10ibv_devicei
libvma.so.8:_ZN14time_converter9clean_objEv
libvma.so.8:_ZN15epoll_wait_call10is_timeoutERK7timeval
libvma.so.8:_ZN15epoll_wait_call13set_efd_readyEii
libvma.so.8:_ZN15epoll_wait_call13set_rfd_readyEi
libvma.so.8:_ZN15epoll_wait_call13set_wfd_readyEi
libvma.so.8:_ZN15epoll_wait_call16immidiate_returnERi
libvma.so.8:_ZN15epoll_wait_call16prepare_to_blockEv
libvma.so.8:_ZN15epoll_wait_call18get_current_eventsEv
libvma.so.8:_ZN15epoll_wait_call18handle_epoll_eventEbjP13socket_fd_apii
libvma.so.8:_ZN15epoll_wait_call18init_offloaded_fdsEv
libvma.so.8:_ZN15epoll_wait_call19handle_os_countdownERi
libvma.so.8:_ZN15epoll_wait_call23set_offloaded_rfd_readyEi
libvma.so.8:_ZN15epoll_wait_call23set_offloaded_wfd_readyEi
libvma.so.8:_ZN15epoll_wait_call25ring_request_notificationEv
libvma.so.8:_ZN15epoll_wait_call27check_all_offloaded_socketsEv
libvma.so.8:_ZN15epoll_wait_call29ring_poll_and_process_elementEv
libvma.so.8:_ZN15epoll_wait_call46ring_wait_for_notification_and_process_elementEPv
libvma.so.8:_ZN15epoll_wait_call4lockEv
libvma.so.8:_ZN15epoll_wait_call4waitERK7timeval
libvma.so.8:_ZN15epoll_wait_call5_waitEi
libvma.so.8:_ZN15epoll_wait_call6unlockEv
libvma.so.8:_ZN15epoll_wait_call7wait_osEb
libvma.so.8:_ZN15epoll_wait_callC1EP11epoll_eventPN11io_mux_call16offloaded_mode_tEiS1_iiPK10__sigset_t
libvma.so.8:_ZN15epoll_wait_callC2EP11epoll_eventPN11io_mux_call16offloaded_mode_tEiS1_iiPK10__sigset_t
libvma.so.8:_ZN15epoll_wait_callD0Ev
libvma.so.8:_ZN15epoll_wait_callD1Ev
libvma.so.8:_ZN15epoll_wait_callD2Ev
libvma.so.8:_ZN15ip_frag_manager13new_frag_descER13ip_frag_key_t
libvma.so.8:_ZN15ip_frag_manager14free_frag_descEP12ip_frag_desc
libvma.so.8:_ZN15ip_frag_manager14free_hole_descEP17ip_frag_hole_desc
libvma.so.8:_ZN15ip_frag_manager15alloc_frag_descEv
libvma.so.8:_ZN15ip_frag_manager15alloc_hole_descEv
libvma.so.8:_ZN15ip_frag_manager16print_statisticsEv
libvma.so.8:_ZN15ip_frag_manager17destroy_frag_descEP12ip_frag_desc
libvma.so.8:_ZN15ip_frag_manager19free_frag_resourcesEv
libvma.so.8:_ZN15ip_frag_manager20handle_timer_expiredEPv
libvma.so.8:_ZN15ip_frag_manager24return_buffers_to_ownersERKSt3mapIP10ring_slaveP14mem_buf_desc_tSt4lessIS2_ESaISt4pairIKS2_S4_EEE
libvma.so.8:_ZN15ip_frag_manager8add_fragEP5iphdrP14mem_buf_desc_tPS3_
libvma.so.8:_ZN15ip_frag_manager9free_fragEP14mem_buf_desc_t
libvma.so.8:_ZN15ip_frag_managerC1Ev
libvma.so.8:_ZN15ip_frag_managerC2Ev
libvma.so.8:_ZN15ip_frag_managerD0Ev
libvma.so.8:_ZN15ip_frag_managerD1Ev
libvma.so.8:_ZN15ip_frag_managerD2Ev
libvma.so.8:_ZN15neigh_table_mgr16create_new_entryE9neigh_keyPK8observer
libvma.so.8:_ZN15neigh_table_mgr17register_observerE9neigh_keyPK14cache_observerPP19cache_entry_subjectIS0_P9neigh_valE
libvma.so.8:_ZN15neigh_table_mgr9notify_cbEP5event
libvma.so.8:_ZN15neigh_table_mgrC1Ev
libvma.so.8:_ZN15neigh_table_mgrC2Ev
libvma.so.8:_ZN15neigh_table_mgrD0Ev
libvma.so.8:_ZN15neigh_table_mgrD1Ev
libvma.so.8:_ZN15neigh_table_mgrD2Ev
libvma.so.8:_ZN15netlink_wrapper10unregisterE20e_netlink_event_typePK8observer
libvma.so.8:_ZN15netlink_wrapper11get_channelEv
libvma.so.8:_ZN15netlink_wrapper12open_channelEv
libvma.so.8:_ZN15netlink_wrapper13handle_eventsEv
libvma.so.8:_ZN15netlink_wrapper14register_eventE20e_netlink_event_typePK8observer
libvma.so.8:_ZN15netlink_wrapper16notify_observersEP13netlink_event20e_netlink_event_type
libvma.so.8:_ZN15netlink_wrapper19link_cache_callbackEP9nl_object
libvma.so.8:_ZN15netlink_wrapper19neigh_timer_expiredEv
libvma.so.8:_ZN15netlink_wrapper20neigh_cache_callbackEP9nl_object
libvma.so.8:_ZN15netlink_wrapper20route_cache_callbackEP9nl_object
libvma.so.8:_ZN15netlink_wrapper26notify_neigh_cache_entriesEv
libvma.so.8:_ZN15netlink_wrapper9get_neighEPKciP18netlink_neigh_info
libvma.so.8:_ZN15netlink_wrapperC1Ev
libvma.so.8:_ZN15netlink_wrapperC2Ev
libvma.so.8:_ZN15netlink_wrapperD0Ev
libvma.so.8:_ZN15netlink_wrapperD1Ev
libvma.so.8:_ZN15netlink_wrapperD2Ev
libvma.so.8:_ZN15qp_mgr_eth_mlx512send_to_wireEP11ibv_send_wr21vma_wr_tx_packet_attrb
libvma.so.8:_ZN15qp_mgr_eth_mlx514init_rx_cq_mgrEP16ibv_comp_channel
libvma.so.8:_ZN15qp_mgr_eth_mlx514init_tx_cq_mgrEv
libvma.so.8:_ZN15qp_mgr_eth_mlx516post_recv_bufferEP14mem_buf_desc_t
libvma.so.8:_ZN15qp_mgr_eth_mlx52upEv
libvma.so.8:_ZN15qp_mgr_eth_mlx539trigger_completion_for_all_sent_packetsEv
libvma.so.8:_ZN15qp_mgr_eth_mlx54downEv
libvma.so.8:_ZN15qp_mgr_eth_mlx57init_sqEv
libvma.so.8:_ZN15qp_mgr_eth_mlx5C1EPK11ring_simplePK14ib_ctx_handlerhP16ibv_comp_channeljtb
libvma.so.8:_ZN15qp_mgr_eth_mlx5C2EPK11ring_simplePK14ib_ctx_handlerhP16ibv_comp_channeljtb
libvma.so.8:_ZN15qp_mgr_eth_mlx5D0Ev
libvma.so.8:_ZN15qp_mgr_eth_mlx5D1Ev
libvma.so.8:_ZN15qp_mgr_eth_mlx5D2Ev
libvma.so.8:_ZN15route_table_mgr10parse_attrEP6rtattrP9route_val
libvma.so.8:_ZN15route_table_mgr10update_tblEv
libvma.so.8:_ZN15route_table_mgr11parse_enrtyEP8nlmsghdrP9route_val
libvma.so.8:_ZN15route_table_mgr12update_entryEP11route_entryb
libvma.so.8:_ZN15route_table_mgr13route_resolveE20route_rule_table_keyR12route_result
libvma.so.8:_ZN15route_table_mgr14find_route_valERjhRP9route_val
libvma.so.8:_ZN15route_table_mgr15new_route_eventEP9route_val
libvma.so.8:_ZN15route_table_mgr16create_new_entryE20route_rule_table_keyPK8observer
libvma.so.8:_ZN15route_table_mgr22update_invalid_entriesEv
libvma.so.8:_ZN15route_table_mgr23rt_mgr_update_source_ipEv
libvma.so.8:_ZN15route_table_mgr9notify_cbEP5event
libvma.so.8:_ZN15route_table_mgrC1Ev
libvma.so.8:_ZN15route_table_mgrC2Ev
libvma.so.8:_ZN15route_table_mgrD0Ev
libvma.so.8:_ZN15route_table_mgrD1Ev
libvma.so.8:_ZN15route_table_mgrD2Ev
libvma.so.8:_ZN16dst_entry_udp_mc12set_src_addrEv
libvma.so.8:_ZN16dst_entry_udp_mc15get_net_dev_valEv
libvma.so.8:_ZN16dst_entry_udp_mc15resolve_net_devEb
libvma.so.8:_ZN16dst_entry_udp_mc26conf_l2_hdr_and_snd_wqe_ibEv
libvma.so.8:_ZN16dst_entry_udp_mcC1EjttjbR11socket_dataR21ring_alloc_logic_attr
libvma.so.8:_ZN16dst_entry_udp_mcC2EjttjbR11socket_dataR21ring_alloc_logic_attr
libvma.so.8:_ZN16dst_entry_udp_mcD0Ev
libvma.so.8:_ZN16dst_entry_udp_mcD1Ev
libvma.so.8:_ZN16dst_entry_udp_mcD2Ev
libvma.so.8:_ZN16net_device_entry20handle_timer_expiredEPv
libvma.so.8:_ZN16net_device_entry23handle_event_ibverbs_cbEPvS0_
libvma.so.8:_ZN16net_device_entry7get_valERP14net_device_val
libvma.so.8:_ZN16net_device_entryC1EjP14net_device_val
libvma.so.8:_ZN16net_device_entryC2EjP14net_device_val
libvma.so.8:_ZN16net_device_entryD0Ev
libvma.so.8:_ZN16net_device_entryD1Ev
libvma.so.8:_ZN16net_device_entryD2Ev
libvma.so.8:_ZN16ring_bond_netvsc12slave_createEi
libvma.so.8:_ZN16wqe_send_handler15init_inline_wqeER11ibv_send_wrP7ibv_sgej
libvma.so.8:_ZN16wqe_send_handler19init_not_inline_wqeER11ibv_send_wrP7ibv_sgej
libvma.so.8:_ZN16wqe_send_handler8init_wqeER11ibv_send_wrP7ibv_sgej
libvma.so.8:_ZN16wqe_send_handlerC1Ev
libvma.so.8:_ZN16wqe_send_handlerC2Ev
libvma.so.8:_ZN16wqe_send_handlerD0Ev
libvma.so.8:_ZN16wqe_send_handlerD1Ev
libvma.so.8:_ZN16wqe_send_handlerD2Ev
libvma.so.8:_ZN17net_device_val_ib11create_ringEP21ring_alloc_logic_attr
libvma.so.8:_ZN17net_device_val_ib17create_L2_addressEPKc
libvma.so.8:_ZN17net_device_val_ib17create_br_addressEPKc
libvma.so.8:_ZN17net_device_val_ib6to_strB5cxx11Ev
libvma.so.8:_ZN17net_device_val_ib9configureEv
libvma.so.8:_ZN17net_device_val_ibD0Ev
libvma.so.8:_ZN17net_device_val_ibD1Ev
libvma.so.8:_ZN17net_device_val_ibD2Ev
libvma.so.8:_ZN17netlink_link_info4fillEP9rtnl_link
libvma.so.8:_ZN17netlink_link_infoC1EP9rtnl_link
libvma.so.8:_ZN17netlink_link_infoC2EP9rtnl_link
libvma.so.8:_ZN17stats_data_reader15add_data_readerEPvS0_i
libvma.so.8:_ZN17stats_data_reader15pop_data_readerEPv
libvma.so.8:_ZN17stats_data_reader17register_to_timerEv
libvma.so.8:_ZN17stats_data_reader20handle_timer_expiredEPv
libvma.so.8:_ZN17stats_data_readerC1Ev
libvma.so.8:_ZN17stats_data_readerC2Ev
libvma.so.8:_ZN18header_pcp_updater12update_fieldER9dst_entry
libvma.so.8:_ZN18header_pcp_updaterC1Eh
libvma.so.8:_ZN18header_pcp_updaterC2Eh
libvma.so.8:_ZN18header_tos_updater12update_fieldER9dst_entry
libvma.so.8:_ZN18header_tos_updaterC1Eh
libvma.so.8:_ZN18header_tos_updaterC2Eh
libvma.so.8:_ZN18header_ttl_updater12update_fieldER9dst_entry
libvma.so.8:_ZN18header_ttl_updaterC1Ehb
libvma.so.8:_ZN18header_ttl_updaterC2Ehb
libvma.so.8:_ZN18neigh_ib_broadcast13get_peer_infoEP9neigh_val
libvma.so.8:_ZN18neigh_ib_broadcast18build_mc_neigh_valEv
libvma.so.8:_ZN18neigh_ib_broadcast4sendER15neigh_send_info
libvma.so.8:_ZN18neigh_ib_broadcast8send_arpEv
libvma.so.8:_ZN18neigh_ib_broadcastC1E9neigh_key
libvma.so.8:_ZN18neigh_ib_broadcastC2E9neigh_key
libvma.so.8:_ZN18net_device_val_eth11create_ringEP21ring_alloc_logic_attr
libvma.so.8:_ZN18net_device_val_eth17create_L2_addressEPKc
libvma.so.8:_ZN18net_device_val_eth17create_br_addressEPKc
libvma.so.8:_ZN18net_device_val_eth21parse_prio_egress_mapEv
libvma.so.8:_ZN18net_device_val_eth6to_strB5cxx11Ev
libvma.so.8:_ZN18net_device_val_eth9configureEv
libvma.so.8:_ZN18netlink_neigh_info4fillEP10rtnl_neigh
libvma.so.8:_ZN18netlink_neigh_infoC1EP10rtnl_neigh
libvma.so.8:_ZN18netlink_neigh_infoC2EP10rtnl_neigh
libvma.so.8:_ZN18netlink_route_info4fillEP10rtnl_route
libvma.so.8:_ZN18netlink_route_infoC1EP10rtnl_route
libvma.so.8:_ZN18netlink_route_infoC2EP10rtnl_route
libvma.so.8:_ZN18netlink_route_infoD1Ev
libvma.so.8:_ZN18netlink_route_infoD2Ev
libvma.so.8:_ZN19wqe_send_ib_handler11init_ib_wqeER11ibv_send_wrP7ibv_sgejP6ibv_ahjj
libvma.so.8:_ZN19wqe_send_ib_handler16init_path_recordER11ibv_send_wrP6ibv_ahjj
libvma.so.8:_ZN19wqe_send_ib_handler18init_inline_ib_wqeER11ibv_send_wrP7ibv_sgejP6ibv_ahjj
libvma.so.8:_ZN19wqe_send_ib_handler22init_not_inline_ib_wqeER11ibv_send_wrP7ibv_sgejP6ibv_ahjj
libvma.so.8:_ZN19wqe_send_ib_handlerC1Ev
libvma.so.8:_ZN19wqe_send_ib_handlerC2Ev
libvma.so.8:_ZN19wqe_send_ib_handlerD0Ev
libvma.so.8:_ZN19wqe_send_ib_handlerD1Ev
libvma.so.8:_ZN19wqe_send_ib_handlerD2Ev
libvma.so.8:_ZN20net_device_table_mgr10update_tblEv
libvma.so.8:_ZN20net_device_table_mgr11get_ip_listB5cxx11Ei
libvma.so.8:_ZN20net_device_table_mgr11get_max_mtuEv
libvma.so.8:_ZN20net_device_table_mgr11set_max_mtuEj
libvma.so.8:_ZN20net_device_table_mgr13print_val_tblEv
libvma.so.8:_ZN20net_device_table_mgr14del_link_eventEPK17netlink_link_info
libvma.so.8:_ZN20net_device_table_mgr14new_link_eventEPK17netlink_link_info
libvma.so.8:_ZN20net_device_table_mgr16create_new_entryE10ip_addressPK8observer
libvma.so.8:_ZN20net_device_table_mgr18get_net_device_valEi
libvma.so.8:_ZN20net_device_table_mgr18get_net_device_valEj
libvma.so.8:_ZN20net_device_table_mgr18global_ring_wakeupEv
libvma.so.8:_ZN20net_device_table_mgr19free_ndtm_resourcesEv
libvma.so.8:_ZN20net_device_table_mgr20global_ring_epfd_getEv
libvma.so.8:_ZN20net_device_table_mgr20handle_timer_expiredEPv
libvma.so.8:_ZN20net_device_table_mgr29global_ring_drain_and_proccesEv
libvma.so.8:_ZN20net_device_table_mgr31global_ring_adapt_cq_moderationEv
libvma.so.8:_ZN20net_device_table_mgr32global_ring_request_notificationEm
libvma.so.8:_ZN20net_device_table_mgr36global_ring_poll_and_process_elementEPmPv
libvma.so.8:_ZN20net_device_table_mgr53global_ring_wait_for_notification_and_process_elementEPmPv
libvma.so.8:_ZN20net_device_table_mgr6to_strB5cxx11Ev
libvma.so.8:_ZN20net_device_table_mgr9notify_cbEP5event
libvma.so.8:_ZN20net_device_table_mgrC1Ev
libvma.so.8:_ZN20net_device_table_mgrC2Ev
libvma.so.8:_ZN20net_device_table_mgrD0Ev
libvma.so.8:_ZN20net_device_table_mgrD1Ev
libvma.so.8:_ZN20net_device_table_mgrD2Ev
libvma.so.8:_ZN21event_handler_manager11stop_threadEv
libvma.so.8:_ZN21event_handler_manager11thread_loopEv
libvma.so.8:_ZN21event_handler_manager11update_epfdEiii
libvma.so.8:_ZN21event_handler_manager12start_threadEv
libvma.so.8:_ZN21event_handler_manager14reg_action_strE19event_action_type_e
libvma.so.8:_ZN21event_handler_manager16statistics_printEi13vlog_levels_t
libvma.so.8:_ZN21event_handler_manager18free_evh_resourcesEv
libvma.so.8:_ZN21event_handler_manager18wakeup_timer_eventEP13timer_handlerPv
libvma.so.8:_ZN21event_handler_manager19post_new_reg_actionER12reg_action_t
libvma.so.8:_ZN21event_handler_manager20register_timer_eventEiP13timer_handler16timer_req_type_tPvP12timers_group
libvma.so.8:_ZN21event_handler_manager21process_ibverbs_eventERSt17_Rb_tree_iteratorISt4pairIKi12event_data_tEE
libvma.so.8:_ZN21event_handler_manager21process_rdma_cm_eventERSt17_Rb_tree_iteratorISt4pairIKi12event_data_tEE
libvma.so.8:_ZN21event_handler_manager22register_command_eventEiP7command
libvma.so.8:_ZN21event_handler_manager22register_ibverbs_eventEiP21event_handler_ibverbsPvS2_
libvma.so.8:_ZN21event_handler_manager22register_rdma_cm_eventEiPvS0_P21event_handler_rdma_cm
libvma.so.8:_ZN21event_handler_manager22unregister_timer_eventEP13timer_handlerPv
libvma.so.8:_ZN21event_handler_manager23query_for_ibverbs_eventEi
libvma.so.8:_ZN21event_handler_manager24unregister_command_eventEi
libvma.so.8:_ZN21event_handler_manager24unregister_ibverbs_eventEiP21event_handler_ibverbs
libvma.so.8:_ZN21event_handler_manager24unregister_rdma_cm_eventEiPv
libvma.so.8:_ZN21event_handler_manager25priv_wakeup_timer_handlerER16timer_reg_info_t
libvma.so.8:_ZN21event_handler_manager26handle_registration_actionER12reg_action_t
libvma.so.8:_ZN21event_handler_manager27priv_register_timer_handlerER16timer_reg_info_t
libvma.so.8:_ZN21event_handler_manager28priv_register_command_eventsER18command_reg_info_t
libvma.so.8:_ZN21event_handler_manager28priv_register_ibverbs_eventsER18ibverbs_reg_info_t
libvma.so.8:_ZN21event_handler_manager28priv_register_rdma_cm_eventsER18rdma_cm_reg_info_t
libvma.so.8:_ZN21event_handler_manager29priv_unregister_timer_handlerER16timer_reg_info_t
libvma.so.8:_ZN21event_handler_manager30priv_unregister_command_eventsER18command_reg_info_t
libvma.so.8:_ZN21event_handler_manager30priv_unregister_ibverbs_eventsER18ibverbs_reg_info_t
libvma.so.8:_ZN21event_handler_manager30priv_unregister_rdma_cm_eventsER18rdma_cm_reg_info_t
libvma.so.8:_ZN21event_handler_manager34priv_unregister_all_handler_timersER16timer_reg_info_t
libvma.so.8:_ZN21event_handler_manager34unregister_timers_event_and_deleteEP13timer_handler
libvma.so.8:_ZN21event_handler_manager38priv_prepare_ibverbs_async_event_queueERSt17_Rb_tree_iteratorISt4pairIKi12event_data_tEE
libvma.so.8:_ZN21event_handler_managerC1Ev
libvma.so.8:_ZN21event_handler_managerC2Ev
libvma.so.8:_ZN21event_handler_managerD0Ev
libvma.so.8:_ZN21event_handler_managerD1Ev
libvma.so.8:_ZN21event_handler_managerD2Ev
libvma.so.8:_ZN21ring_alloc_logic_attr15set_user_id_keyEm
libvma.so.8:_ZN21ring_alloc_logic_attr20set_ring_alloc_logicE12ring_logic_t
libvma.so.8:_ZN21ring_alloc_logic_attr20set_ring_profile_keyEi
libvma.so.8:_ZN21ring_alloc_logic_attr21set_memory_descriptorER5iovec
libvma.so.8:_ZN21ring_alloc_logic_attr4initEv
libvma.so.8:_ZN21ring_alloc_logic_attrC1E12ring_logic_t
libvma.so.8:_ZN21ring_alloc_logic_attrC1ERKS_
libvma.so.8:_ZN21ring_alloc_logic_attrC1Ev
libvma.so.8:_ZN21ring_alloc_logic_attrC2E12ring_logic_t
libvma.so.8:_ZN21ring_alloc_logic_attrC2ERKS_
libvma.so.8:_ZN21ring_alloc_logic_attrC2Ev
libvma.so.8:_ZN21ring_allocation_logic14create_new_keyEji
libvma.so.8:_ZN21ring_allocation_logic19should_migrate_ringEv
libvma.so.8:_ZN21ring_allocation_logic21calc_res_key_by_logicEv
libvma.so.8:_ZN21ring_allocation_logicC1E12ring_logic_ti8source_tR21ring_alloc_logic_attr
libvma.so.8:_ZN21ring_allocation_logicC1Ev
libvma.so.8:_ZN21ring_allocation_logicC2E12ring_logic_ti8source_tR21ring_alloc_logic_attr
libvma.so.8:_ZN21ring_allocation_logicC2Ev
libvma.so.8:_ZN21tcp_timers_collection12remove_timerEP12timer_node_t
libvma.so.8:_ZN21tcp_timers_collection13add_new_timerEP12timer_node_tP13timer_handlerPv
libvma.so.8:_ZN21tcp_timers_collection18free_tta_resourcesEv
libvma.so.8:_ZN21tcp_timers_collection20handle_timer_expiredEPv
libvma.so.8:_ZN21tcp_timers_collection9clean_objEv
libvma.so.8:_ZN21tcp_timers_collectionC1Eii
libvma.so.8:_ZN21tcp_timers_collectionC2Eii
libvma.so.8:_ZN21tcp_timers_collectionD0Ev
libvma.so.8:_ZN21tcp_timers_collectionD1Ev
libvma.so.8:_ZN21tcp_timers_collectionD2Ev
libvma.so.8:_ZN21time_converter_ib_ctx11sync_clocksEP8timespecPm
libvma.so.8:_ZN21time_converter_ib_ctx18get_hca_core_clockEv
libvma.so.8:_ZN21time_converter_ib_ctx20handle_timer_expiredEPv
libvma.so.8:_ZN21time_converter_ib_ctx22fix_hw_clock_deviationEv
libvma.so.8:_ZN21time_converter_ib_ctx30convert_hw_time_to_system_timeEmP8timespec
libvma.so.8:_ZN21time_converter_ib_ctxC1EP11ibv_context20ts_conversion_mode_tm
libvma.so.8:_ZN21time_converter_ib_ctxC2EP11ibv_context20ts_conversion_mode_tm
libvma.so.8:_ZN21vlogger_timer_handler20handle_timer_expiredEPv
libvma.so.8:_ZN21vlogger_timer_handlerC1Ev
libvma.so.8:_ZN21vlogger_timer_handlerC2Ev
libvma.so.8:_ZN21vlogger_timer_handlerD0Ev
libvma.so.8:_ZN21vlogger_timer_handlerD1Ev
libvma.so.8:_ZN21vlogger_timer_handlerD2Ev
libvma.so.8:_ZN24flow_tuple_with_local_if7set_strEv
libvma.so.8:_ZN24ring_profiles_collection11add_profileEP18vma_ring_type_attr
libvma.so.8:_ZN24ring_profiles_collection11get_profileEi
libvma.so.8:_ZN24ring_profiles_collectionC1Ev
libvma.so.8:_ZN24ring_profiles_collectionC2Ev
libvma.so.8:_ZN24ring_profiles_collectionD1Ev
libvma.so.8:_ZN24ring_profiles_collectionD2Ev
libvma.so.8:_ZN25ib_ctx_handler_collection10del_ib_ctxEP14ib_ctx_handler
libvma.so.8:_ZN25ib_ctx_handler_collection10get_ib_ctxEPKc
libvma.so.8:_ZN25ib_ctx_handler_collection10update_tblEPKc
libvma.so.8:_ZN25ib_ctx_handler_collection13print_val_tblEv
libvma.so.8:_ZN25ib_ctx_handler_collectionC1Ev
libvma.so.8:_ZN25ib_ctx_handler_collectionC2Ev
libvma.so.8:_ZN25ib_ctx_handler_collectionD1Ev
libvma.so.8:_ZN25ib_ctx_handler_collectionD2Ev
libvma.so.8:_ZN3rfs11attach_flowEP13pkt_rcvr_sink
libvma.so.8:_ZN3rfs11detach_flowEP13pkt_rcvr_sink
libvma.so.8:_ZN3rfs15create_ibv_flowEv
libvma.so.8:_ZN3rfs16destroy_ibv_flowEv
libvma.so.8:_ZN3rfs6to_strEv
libvma.so.8:_ZN3rfs8add_sinkEP13pkt_rcvr_sink
libvma.so.8:_ZN3rfs8del_sinkEP13pkt_rcvr_sink
libvma.so.8:_ZN3rfsC1EP10flow_tupleP10ring_slaveP15rfs_rule_filterj
libvma.so.8:_ZN3rfsC2EP10flow_tupleP10ring_slaveP15rfs_rule_filterj
libvma.so.8:_ZN3rfsD0Ev
libvma.so.8:_ZN3rfsD1Ev
libvma.so.8:_ZN3rfsD2Ev
libvma.so.8:_ZN4ring9print_valEv
libvma.so.8:_ZN4ringC1Ev
libvma.so.8:_ZN4ringC2Ev
libvma.so.8:_ZN4ringD0Ev
libvma.so.8:_ZN4ringD1Ev
libvma.so.8:_ZN4ringD2Ev
libvma.so.8:_ZN5agent10check_linkEv
libvma.so.8:_ZN5agent11progress_cbEv
libvma.so.8:_ZN5agent11register_cbEPFvPvES0_
libvma.so.8:_ZN5agent13send_msg_exitEv
libvma.so.8:_ZN5agent13send_msg_flowEP12vma_msg_flow
libvma.so.8:_ZN5agent13send_msg_initEv
libvma.so.8:_ZN5agent13unregister_cbEPFvPvES0_
libvma.so.8:_ZN5agent19create_agent_socketEv
libvma.so.8:_ZN5agent3putEPKvml
libvma.so.8:_ZN5agent4sendEP9agent_msg
libvma.so.8:_ZN5agent8progressEv
libvma.so.8:_ZN5agentC1Ev
libvma.so.8:_ZN5agentC2Ev
libvma.so.8:_ZN5agentD0Ev
libvma.so.8:_ZN5agentD1Ev
libvma.so.8:_ZN5agentD2Ev
libvma.so.8:_ZN5timer12remove_timerEP12timer_node_tP13timer_handler
libvma.so.8:_ZN5timer12wakeup_timerEP12timer_node_t
libvma.so.8:_ZN5timer13add_new_timerEjP12timer_node_tP13timer_handlerPv16timer_req_type_t
libvma.so.8:_ZN5timer14insert_to_listEP12timer_node_t
libvma.so.8:_ZN5timer14update_timeoutEv
libvma.so.8:_ZN5timer16remove_from_listEP12timer_node_t
libvma.so.8:_ZN5timer17remove_all_timersEP13timer_handler
libvma.so.8:_ZN5timer25process_registered_timersEv
libvma.so.8:_ZN5timerC1Ev
libvma.so.8:_ZN5timerC2Ev
libvma.so.8:_ZN5timerD1Ev
libvma.so.8:_ZN5timerD2Ev
libvma.so.8:_ZN6cq_mgr14get_channel_fdEv
libvma.so.8:_ZN6cq_mgr15get_ibv_cq_hndlEv
libvma.so.8:_ZN6cq_mgr16statistics_printEv
libvma.so.8:_ZN6cq_mgr18drain_and_proccessEPm
libvma.so.8:_ZN6cq_mgr20reclaim_recv_buffersEP10vma_list_tI14mem_buf_desc_tXadL_ZNS1_18buffer_node_offsetEvEEE
libvma.so.8:_ZN6cq_mgr20reclaim_recv_buffersEP14mem_buf_desc_t
libvma.so.8:_ZN6cq_mgr20request_more_buffersEv
libvma.so.8:_ZN6cq_mgr20request_notificationEm
libvma.so.8:_ZN6cq_mgr20return_extra_buffersEv
libvma.so.8:_ZN6cq_mgr21process_cq_element_rxEP6ibv_wc
libvma.so.8:_ZN6cq_mgr21process_cq_element_txEP6ibv_wc
libvma.so.8:_ZN6cq_mgr22process_tx_buffer_listEP14mem_buf_desc_t
libvma.so.8:_ZN6cq_mgr26compensate_qp_poll_successEP14mem_buf_desc_t
libvma.so.8:_ZN6cq_mgr26reclaim_recv_buffer_helperEP14mem_buf_desc_t
libvma.so.8:_ZN6cq_mgr26reclaim_recv_single_bufferEP14mem_buf_desc_t
libvma.so.8:_ZN6cq_mgr27poll_and_process_element_rxEPP14mem_buf_desc_t
libvma.so.8:_ZN6cq_mgr27poll_and_process_element_rxEPmPv
libvma.so.8:_ZN6cq_mgr27poll_and_process_element_txEPm
libvma.so.8:_ZN6cq_mgr28mem_buf_desc_return_to_ownerEP14mem_buf_desc_tPv
libvma.so.8:_ZN6cq_mgr28reclaim_recv_buffers_no_lockEP14mem_buf_desc_t
libvma.so.8:_ZN6cq_mgr29process_cq_element_log_helperEP14mem_buf_desc_tP6ibv_wc
libvma.so.8:_ZN6cq_mgr34mem_buf_desc_completion_with_errorEP14mem_buf_desc_t
libvma.so.8:_ZN6cq_mgr41wait_for_notification_and_process_elementEPmPv
libvma.so.8:_ZN6cq_mgr4pollEP6ibv_wciPm
libvma.so.8:_ZN6cq_mgr8clean_cqEv
libvma.so.8:_ZN6cq_mgr9add_qp_rxEP6qp_mgr
libvma.so.8:_ZN6cq_mgr9add_qp_txEP6qp_mgr
libvma.so.8:_ZN6cq_mgr9configureEi
libvma.so.8:_ZN6cq_mgr9del_qp_rxEP6qp_mgr
libvma.so.8:_ZN6cq_mgrC1EP11ring_simpleP14ib_ctx_handleriP16ibv_comp_channelbb
libvma.so.8:_ZN6cq_mgrC2EP11ring_simpleP14ib_ctx_handleriP16ibv_comp_channelbb
libvma.so.8:_ZN6cq_mgrD0Ev
libvma.so.8:_ZN6cq_mgrD1Ev
libvma.so.8:_ZN6cq_mgrD2Ev
libvma.so.8:_ZN6header10set_ip_tosEh
libvma.so.8:_ZN6header10set_ip_ttlEh
libvma.so.8:_ZN6header12set_vlan_pcpEh
libvma.so.8:_ZN6header19configure_ip_headerEhjjhht
libvma.so.8:_ZN6header19configure_tcp_portsEtt
libvma.so.8:_ZN6header20configure_udp_headerEtt
libvma.so.8:_ZN6header21configure_eth_headersERK10L2_addressS2_t
libvma.so.8:_ZN6header21set_mac_to_eth_headerERK10L2_addressS2_R6ethhdr
libvma.so.8:_ZN6header22update_actual_hdr_addrEv
libvma.so.8:_ZN6header23configure_ipoib_headersEj
libvma.so.8:_ZN6header26configure_vlan_eth_headersERK10L2_addressS2_tt
libvma.so.8:_ZN6header4initEv
libvma.so.8:_ZN6headerC1ERKS_
libvma.so.8:_ZN6headerC1Ev
libvma.so.8:_ZN6headerC2ERKS_
libvma.so.8:_ZN6headerC2Ev
libvma.so.8:_ZN6qp_mgr14init_rx_cq_mgrEP16ibv_comp_channel
libvma.so.8:_ZN6qp_mgr14init_tx_cq_mgrEv
libvma.so.8:_ZN6qp_mgr16post_recv_bufferEP14mem_buf_desc_t
libvma.so.8:_ZN6qp_mgr17get_rx_max_wr_numEv
libvma.so.8:_ZN6qp_mgr17post_recv_buffersEP10vma_list_tI14mem_buf_desc_tXadL_ZNS1_18buffer_node_offsetEvEEEm
libvma.so.8:_ZN6qp_mgr18release_rx_buffersEv
libvma.so.8:_ZN6qp_mgr18release_tx_buffersEv
libvma.so.8:_ZN6qp_mgr19is_ratelimit_changeER16vma_rate_limit_t
libvma.so.8:_ZN6qp_mgr19modify_qp_ratelimitER16vma_rate_limit_tj
libvma.so.8:_ZN6qp_mgr22is_ratelimit_supportedEP15ibv_device_attrR16vma_rate_limit_t
libvma.so.8:_ZN6qp_mgr24handle_cq_initializationEPjP16ibv_comp_channelb
libvma.so.8:_ZN6qp_mgr24modify_qp_to_error_stateEv
libvma.so.8:_ZN6qp_mgr2upEv
libvma.so.8:_ZN6qp_mgr39trigger_completion_for_all_sent_packetsEv
libvma.so.8:_ZN6qp_mgr4downEv
libvma.so.8:_ZN6qp_mgr4sendEP11ibv_send_wr21vma_wr_tx_packet_attr
libvma.so.8:_ZN6qp_mgr9configureEP16ibv_comp_channel
libvma.so.8:_ZN6qp_mgrC1EPK11ring_simplePK14ib_ctx_handlerhj
libvma.so.8:_ZN6qp_mgrC2EPK11ring_simplePK14ib_ctx_handlerhj
libvma.so.8:_ZN6qp_mgrD0Ev
libvma.so.8:_ZN6qp_mgrD1Ev
libvma.so.8:_ZN6qp_mgrD2Ev
libvma.so.8:_ZN6rfs_mc17prepare_flow_specEv
libvma.so.8:_ZN6rfs_mc18rx_dispatch_packetEP14mem_buf_desc_tPv
libvma.so.8:_ZN6rfs_mcC1EP10flow_tupleP10ring_slaveP15rfs_rule_filteri
libvma.so.8:_ZN6rfs_mcC2EP10flow_tupleP10ring_slaveP15rfs_rule_filteri
libvma.so.8:_ZN6rfs_uc17prepare_flow_specEv
libvma.so.8:_ZN6rfs_uc18rx_dispatch_packetEP14mem_buf_desc_tPv
libvma.so.8:_ZN6rfs_ucC1EP10flow_tupleP10ring_slaveP15rfs_rule_filterj
libvma.so.8:_ZN6rfs_ucC2EP10flow_tupleP10ring_slaveP15rfs_rule_filterj
libvma.so.8:_ZN6wakeup14going_to_sleepEv
libvma.so.8:_ZN6wakeup19wakeup_set_epoll_fdEi
libvma.so.8:_ZN6wakeupC1Ev
libvma.so.8:_ZN6wakeupC2Ev
libvma.so.8:_ZN7gro_mgr13is_stream_maxEv
libvma.so.8:_ZN7gro_mgr14reserve_streamEP14rfs_uc_tcp_gro
libvma.so.8:_ZN7gro_mgr9flush_allEPv
libvma.so.8:_ZN7gro_mgrC1Ejj
libvma.so.8:_ZN7gro_mgrC2Ejj
libvma.so.8:_ZN7gro_mgrD0Ev
libvma.so.8:_ZN7gro_mgrD1Ev
libvma.so.8:_ZN7gro_mgrD2Ev
libvma.so.8:_ZN7ring_ib13create_qp_mgrEPK14ib_ctx_handlerhP16ibv_comp_channel
libvma.so.8:_ZN7ring_ib22is_ratelimit_supportedER16vma_rate_limit_t
libvma.so.8:_ZN7sm_fifo8is_emptyEv
libvma.so.8:_ZN7sm_fifo9pop_frontEv
libvma.so.8:_ZN7sm_fifo9push_backEiPv
libvma.so.8:_ZN7subject16notify_observersEP5event
libvma.so.8:_ZN7subject17register_observerEPK8observer
libvma.so.8:_ZN7subject19unregister_observerEPK8observer
libvma.so.8:_ZN8igmp_mgr16get_igmp_handlerERK9neigh_keyh
libvma.so.8:_ZN8igmp_mgr19process_igmp_packetEP5iphdrj
libvma.so.8:_ZN8igmp_mgrD0Ev
libvma.so.8:_ZN8igmp_mgrD1Ev
libvma.so.8:_ZN8igmp_mgrD2Ev
libvma.so.8:_ZN8neigh_ib10destroy_ahEv
libvma.so.8:_ZN8neigh_ib13post_send_arpEb
libvma.so.8:_ZN8neigh_ib16priv_enter_errorEv
libvma.so.8:_ZN8neigh_ib16priv_enter_readyEv
libvma.so.8:_ZN8neigh_ib18build_mc_neigh_valEP13rdma_cm_eventRj
libvma.so.8:_ZN8neigh_ib18build_uc_neigh_valEP13rdma_cm_eventRj
libvma.so.8:_ZN8neigh_ib20handle_timer_expiredEPv
libvma.so.8:_ZN8neigh_ib21ibverbs_event_mappingEPv
libvma.so.8:_ZN8neigh_ib21priv_enter_not_activeEv
libvma.so.8:_ZN8neigh_ib22prepare_to_send_packetEP6header
libvma.so.8:_ZN8neigh_ib23handle_event_ibverbs_cbEPvS0_
libvma.so.8:_ZN8neigh_ib23priv_enter_arp_resolvedEv
libvma.so.8:_ZN8neigh_ib24priv_enter_path_resolvedEP13rdma_cm_eventRj
libvma.so.8:_ZN8neigh_ib25dofunc_enter_arp_resolvedERK9sm_info_t
libvma.so.8:_ZN8neigh_ib26dofunc_enter_path_resolvedERK9sm_info_t
libvma.so.8:_ZN8neigh_ib28handle_enter_arp_resolved_mcEv
libvma.so.8:_ZN8neigh_ib28handle_enter_arp_resolved_ucEv
libvma.so.8:_ZN8neigh_ib31priv_handle_neigh_is_l2_changedEPh
libvma.so.8:_ZN8neigh_ib7find_pdEv
libvma.so.8:_ZN8neigh_ib9create_ahEv
libvma.so.8:_ZN8neigh_ibC1E9neigh_keyb
libvma.so.8:_ZN8neigh_ibC2E9neigh_keyb
libvma.so.8:_ZN8neigh_ibD0Ev
libvma.so.8:_ZN8neigh_ibD1Ev
libvma.so.8:_ZN8neigh_ibD2Ev
libvma.so.8:_ZN8pipeinfo16save_stats_rx_osEi
libvma.so.8:_ZN8pipeinfo16save_stats_tx_osEi
libvma.so.8:_ZN8pipeinfo16statistics_printEv
libvma.so.8:_ZN8pipeinfo20handle_timer_expiredEPv
libvma.so.8:_ZN8pipeinfo22write_lbm_pipe_enhanceEv
libvma.so.8:_ZN8pipeinfo2rxE9rx_call_tP5ioveclPiP8sockaddrPjP6msghdr
libvma.so.8:_ZN8pipeinfo2txE9tx_call_tPK5iovecliPK8sockaddrj
libvma.so.8:_ZN8pipeinfo5fcntlEim
libvma.so.8:_ZN8pipeinfo5ioctlEmm
libvma.so.8:_ZN8pipeinfo9clean_objEv
libvma.so.8:_ZN8pipeinfoC1Ei
libvma.so.8:_ZN8pipeinfoC2Ei
libvma.so.8:_ZN8pipeinfoD0Ev
libvma.so.8:_ZN8pipeinfoD1Ev
libvma.so.8:_ZN8pipeinfoD2Ev
libvma.so.8:_ZN8ring_eth13create_qp_mgrEPK14ib_ctx_handlerhP16ibv_comp_channel
libvma.so.8:_ZN8ring_eth22is_ratelimit_supportedER16vma_rate_limit_t
libvma.so.8:_ZN8ring_tap10tap_createEP14net_device_val
libvma.so.8:_ZN8ring_tap11attach_flowER10flow_tupleP13pkt_rcvr_sink
libvma.so.8:_ZN8ring_tap11detach_flowER10flow_tupleP13pkt_rcvr_sink
libvma.so.8:_ZN8ring_tap11send_bufferEP11ibv_send_wr21vma_wr_tx_packet_attr
libvma.so.8:_ZN8ring_tap11tap_destroyEv
libvma.so.8:_ZN8ring_tap14mem_buf_tx_getEibi
libvma.so.8:_ZN8ring_tap16flow_tcp_del_allEv
libvma.so.8:_ZN8ring_tap16flow_udp_del_allEv
libvma.so.8:_ZN8ring_tap16send_lwip_bufferEiP11ibv_send_wr21vma_wr_tx_packet_attr
libvma.so.8:_ZN8ring_tap16send_ring_bufferEiP11ibv_send_wr21vma_wr_tx_packet_attr
libvma.so.8:_ZN8ring_tap17rx_process_bufferEP14mem_buf_desc_tPv
libvma.so.8:_ZN8ring_tap18drain_and_proccessEv
libvma.so.8:_ZN8ring_tap18mem_buf_tx_releaseEP14mem_buf_desc_tbb
libvma.so.8:_ZN8ring_tap18process_element_rxEPv
libvma.so.8:_ZN8ring_tap19send_status_handlerEiP11ibv_send_wr
libvma.so.8:_ZN8ring_tap20prepare_flow_messageER12vma_msg_flow10msg_flow_t
libvma.so.8:_ZN8ring_tap20prepare_flow_messageER12vma_msg_flow10msg_flow_tR10flow_tuple
libvma.so.8:_ZN8ring_tap20reclaim_recv_buffersEP10vma_list_tI14mem_buf_desc_tXadL_ZNS1_18buffer_node_offsetEvEEE
libvma.so.8:_ZN8ring_tap20reclaim_recv_buffersEP14mem_buf_desc_t
libvma.so.8:_ZN8ring_tap23request_more_rx_buffersEv
libvma.so.8:_ZN8ring_tap23request_more_tx_buffersEv
libvma.so.8:_ZN8ring_tap27poll_and_process_element_rxEPmPv
libvma.so.8:_ZN8ring_tap38mem_buf_desc_return_single_to_owner_txEP14mem_buf_desc_t
libvma.so.8:_ZN8ring_tap41wait_for_notification_and_process_elementEiPmPv
libvma.so.8:_ZN8ring_tapC1EiP4ring
libvma.so.8:_ZN8ring_tapC2EiP4ring
libvma.so.8:_ZN8ring_tapD0Ev
libvma.so.8:_ZN8ring_tapD1Ev
libvma.so.8:_ZN8ring_tapD2Ev
libvma.so.8:_ZN8rule_val7set_strEv
libvma.so.8:_ZN8rule_val9print_valEv
libvma.so.8:_ZN8rule_valC1Ev
libvma.so.8:_ZN8rule_valC2Ev
libvma.so.8:_ZN8sockinfo10getsockoptEiiPvPj
libvma.so.8:_ZN8sockinfo10setsockoptEiiPKvj
libvma.so.8:_ZN8sockinfo11handle_cmsgEP6msghdr
libvma.so.8:_ZN8sockinfo11insert_cmsgEP10cmsg_stateiiPvi
libvma.so.8:_ZN8sockinfo12set_blockingEb
libvma.so.8:_ZN8sockinfo13get_rings_fdsERi
libvma.so.8:_ZN8sockinfo13get_rings_numEv
libvma.so.8:_ZN8sockinfo14rx_add_ring_cbER24flow_tuple_with_local_ifP4ringb
libvma.so.8:_ZN8sockinfo14rx_del_ring_cbER24flow_tuple_with_local_ifP4ringb
libvma.so.8:_ZN8sockinfo14rx_wait_helperERib
libvma.so.8:_ZN8sockinfo15attach_receiverER24flow_tuple_with_local_if
libvma.so.8:_ZN8sockinfo15detach_receiverER24flow_tuple_with_local_if
libvma.so.8:_ZN8sockinfo16handle_msg_truncEmmiPi
libvma.so.8:_ZN8sockinfo16modify_ratelimitEP9dst_entryR16vma_rate_limit_t
libvma.so.8:_ZN8sockinfo16save_stats_rx_osEi
libvma.so.8:_ZN8sockinfo16save_stats_tx_osEi
libvma.so.8:_ZN8sockinfo16set_sockopt_prioEPKvj
libvma.so.8:_ZN8sockinfo16statistics_printE13vlog_levels_t
libvma.so.8:_ZN8sockinfo17add_epoll_contextEP9epfd_info
libvma.so.8:_ZN8sockinfo17destructor_helperEv
libvma.so.8:_ZN8sockinfo17get_sock_by_L3_L4E13in_protocol_tjt
libvma.so.8:_ZN8sockinfo17register_callbackEPF26vma_recv_callback_retval_timP5iovecP10vma_info_tPvES5_
libvma.so.8:_ZN8sockinfo17setsockopt_kernelEiiPKvjib
libvma.so.8:_ZN8sockinfo17try_un_offloadingEv
libvma.so.8:_ZN8sockinfo18do_rings_migrationEv
libvma.so.8:_ZN8sockinfo18find_target_familyE6role_tP8sockaddrS2_
libvma.so.8:_ZN8sockinfo18process_timestampsEP14mem_buf_desc_t
libvma.so.8:_ZN8sockinfo19create_nd_resourcesE10ip_address
libvma.so.8:_ZN8sockinfo20destroy_nd_resourcesE10ip_address
libvma.so.8:_ZN8sockinfo20remove_epoll_contextEP9epfd_info
libvma.so.8:_ZN8sockinfo21attach_as_uc_receiverE6role_tb
libvma.so.8:_ZN8sockinfo21save_stats_rx_offloadEi
libvma.so.8:_ZN8sockinfo22get_socket_network_ptrEPvRt
libvma.so.8:_ZN8sockinfo24consider_rings_migrationEv
libvma.so.8:_ZN8sockinfo25move_owned_rx_ready_descsEP4ringP10vma_list_tI14mem_buf_desc_tXadL_ZNS3_18buffer_node_offsetEvEEE
libvma.so.8:_ZN8sockinfo5fcntlEim
libvma.so.8:_ZN8sockinfo5ioctlEmm
libvma.so.8:_ZN8sockinfo7rx_waitERib
libvma.so.8:_ZN8sockinfoC1Ei
libvma.so.8:_ZN8sockinfoC2Ei
libvma.so.8:_ZN8sockinfoD0Ev
libvma.so.8:_ZN8sockinfoD1Ev
libvma.so.8:_ZN8sockinfoD2Ev
libvma.so.8:_ZN8vma_lwip15sockaddr2ipaddrEPK8sockaddrjR7ip_addrRt
libvma.so.8:_ZN8vma_lwip19free_lwip_resourcesEv
libvma.so.8:_ZN8vma_lwip20handle_timer_expiredEPv
libvma.so.8:_ZN8vma_lwip25read_tcp_timestamp_optionEv
libvma.so.8:_ZN8vma_lwip7sys_nowEv
libvma.so.8:_ZN8vma_lwipC1Ev
libvma.so.8:_ZN8vma_lwipC2Ev
libvma.so.8:_ZN8vma_lwipD0Ev
libvma.so.8:_ZN8vma_lwipD1Ev
libvma.so.8:_ZN8vma_lwipD2Ev
libvma.so.8:_ZN8vma_spec6to_strE10vma_spec_t
libvma.so.8:_ZN8vma_spec8from_intEi10vma_spec_t
libvma.so.8:_ZN8vma_spec8from_strEPKc10vma_spec_t
libvma.so.8:_ZN9dst_entry12get_dst_addrEv
libvma.so.8:_ZN9dst_entry12get_dst_portEv
libvma.so.8:_ZN9dst_entry12init_membersEv
libvma.so.8:_ZN9dst_entry12release_ringEv
libvma.so.8:_ZN9dst_entry12resolve_ringEv
libvma.so.8:_ZN9dst_entry12set_src_addrEv
libvma.so.8:_ZN9dst_entry13get_route_mtuEv
libvma.so.8:_ZN9dst_entry13resolve_neighEv
libvma.so.8:_ZN9dst_entry13update_rt_valEv
libvma.so.8:_ZN9dst_entry14set_bound_addrEj
libvma.so.8:_ZN9dst_entry15alloc_neigh_valE16transport_type_t
libvma.so.8:_ZN9dst_entry15get_net_dev_valEv
libvma.so.8:_ZN9dst_entry15prepare_to_sendER16vma_rate_limit_tbb
libvma.so.8:_ZN9dst_entry15resolve_net_devEb
libvma.so.8:_ZN9dst_entry16modify_ratelimitER16vma_rate_limit_t
libvma.so.8:_ZN9dst_entry16try_migrate_ringER9lock_base
libvma.so.8:_ZN9dst_entry17do_ring_migrationER9lock_base
libvma.so.8:_ZN9dst_entry18pass_buff_to_neighEPK5iovecRmt
libvma.so.8:_ZN9dst_entry18update_net_dev_valEv
libvma.so.8:_ZN9dst_entry19configure_ip_headerEP6headert
libvma.so.8:_ZN9dst_entry19return_buffers_poolEv
libvma.so.8:_ZN9dst_entry21conf_hdrs_and_snd_wqeEv
libvma.so.8:_ZN9dst_entry23alloc_transport_dep_resEv
libvma.so.8:_ZN9dst_entry24get_priority_by_tc_classEj
libvma.so.8:_ZN9dst_entry24set_so_bindtodevice_addrEj
libvma.so.8:_ZN9dst_entry26conf_l2_hdr_and_snd_wqe_ibEv
libvma.so.8:_ZN9dst_entry27conf_l2_hdr_and_snd_wqe_ethEv
libvma.so.8:_ZN9dst_entry28offloaded_according_to_rulesEv
libvma.so.8:_ZN9dst_entry9notify_cbEv
libvma.so.8:_ZN9dst_entryC1EjttR11socket_dataR21ring_alloc_logic_attr
libvma.so.8:_ZN9dst_entryC2EjttR11socket_dataR21ring_alloc_logic_attr
libvma.so.8:_ZN9dst_entryD0Ev
libvma.so.8:_ZN9dst_entryD1Ev
libvma.so.8:_ZN9dst_entryD2Ev
libvma.so.8:_ZN9epfd_info10get_fd_recEi
libvma.so.8:_ZN9epfd_info16statistics_printE13vlog_levels_t
libvma.so.8:_ZN9epfd_info18insert_epoll_eventEP13socket_fd_apij
libvma.so.8:_ZN9epfd_info18remove_epoll_eventEP13socket_fd_apij
libvma.so.8:_ZN9epfd_info21insert_epoll_event_cbEP13socket_fd_apij
libvma.so.8:_ZN9epfd_info21set_os_data_availableEv
libvma.so.8:_ZN9epfd_info23decrease_ring_ref_countEP4ring
libvma.so.8:_ZN9epfd_info23increase_ring_ref_countEP4ring
libvma.so.8:_ZN9epfd_info23remove_fd_from_epoll_osEi
libvma.so.8:_ZN9epfd_info25ring_request_notificationEm
libvma.so.8:_ZN9epfd_info27register_to_internal_threadEv
libvma.so.8:_ZN9epfd_info29ring_poll_and_process_elementEPmPv
libvma.so.8:_ZN9epfd_info30get_offloaded_fds_arr_and_sizeEPPiS1_
libvma.so.8:_ZN9epfd_info31get_and_unset_os_data_availableEv
libvma.so.8:_ZN9epfd_info3ctlEiiP11epoll_event
libvma.so.8:_ZN9epfd_info46ring_wait_for_notification_and_process_elementEPmPv
libvma.so.8:_ZN9epfd_info5statsEv
libvma.so.8:_ZN9epfd_info6add_fdEiP11epoll_event
libvma.so.8:_ZN9epfd_info6del_fdEib
libvma.so.8:_ZN9epfd_info6mod_fdEiP11epoll_event
libvma.so.8:_ZN9epfd_info8is_cq_fdEm
libvma.so.8:_ZN9epfd_info9clean_objEv
libvma.so.8:_ZN9epfd_info9fd_closedEib
libvma.so.8:_ZN9epfd_infoC1Eii
libvma.so.8:_ZN9epfd_infoC2Eii
libvma.so.8:_ZN9epfd_infoD0Ev
libvma.so.8:_ZN9epfd_infoD1Ev
libvma.so.8:_ZN9epfd_infoD2Ev
libvma.so.8:_ZN9neigh_eth12is_deletableEv
libvma.so.8:_ZN9neigh_eth13get_peer_infoEP9neigh_val
libvma.so.8:_ZN9neigh_eth13post_send_arpEb
libvma.so.8:_ZN9neigh_eth15priv_enter_initEv
libvma.so.8:_ZN9neigh_eth16priv_enter_readyEv
libvma.so.8:_ZN9neigh_eth17register_observerEPK8observer
libvma.so.8:_ZN9neigh_eth21generate_ring_user_idEP6header
libvma.so.8:_ZN9neigh_eth22prepare_to_send_packetEP6header
libvma.so.8:_ZN9neigh_eth26priv_enter_init_resolutionEv
libvma.so.8:_ZN9neigh_eth31priv_handle_neigh_is_l2_changedEPh
libvma.so.8:_ZN9neigh_ethC1E9neigh_key
libvma.so.8:_ZN9neigh_ethC2E9neigh_key
libvma.so.8:_ZN9neigh_ethD0Ev
libvma.so.8:_ZN9neigh_ethD1Ev
libvma.so.8:_ZN9neigh_ethD2Ev
libvma.so.8:_ZN9poll_call10is_timeoutERK7timeval
libvma.so.8:_ZN9poll_call13set_efd_readyEii
libvma.so.8:_ZN9poll_call13set_rfd_readyEi
libvma.so.8:_ZN9poll_call13set_wfd_readyEi
libvma.so.8:_ZN9poll_call16copy_to_orig_fdsEv
libvma.so.8:_ZN9poll_call16prepare_to_blockEv
libvma.so.8:_ZN9poll_call23set_offloaded_efd_readyEii
libvma.so.8:_ZN9poll_call23set_offloaded_rfd_readyEi
libvma.so.8:_ZN9poll_call23set_offloaded_wfd_readyEi
libvma.so.8:_ZN9poll_call4waitERK7timeval
libvma.so.8:_ZN9poll_call7wait_osEb
libvma.so.8:_ZN9poll_callC1EPiPN11io_mux_call16offloaded_mode_tES0_P6pollfdS5_miPK10__sigset_t
libvma.so.8:_ZN9poll_callC2EPiPN11io_mux_call16offloaded_mode_tES0_P6pollfdS5_miPK10__sigset_t
libvma.so.8:_ZN9qp_mgr_ib14prepare_ibv_qpER19ibv_qp_init_attr_ex
libvma.so.8:_ZN9qp_mgr_ib17update_pkey_indexEv
libvma.so.8:_ZN9qp_mgr_ib24modify_qp_to_ready_stateEv
libvma.so.8:_ZN9ring_bond11attach_flowER10flow_tupleP13pkt_rcvr_sink
libvma.so.8:_ZN9ring_bond11detach_flowER10flow_tupleP13pkt_rcvr_sink
libvma.so.8:_ZN9ring_bond11generate_idEPhS0_ttjjtt
libvma.so.8:_ZN9ring_bond13slave_destroyEi
libvma.so.8:_ZN9ring_bond14mem_buf_tx_getEibi
libvma.so.8:_ZN9ring_bond16is_active_memberEP10ring_slavei
libvma.so.8:_ZN9ring_bond16modify_ratelimitER16vma_rate_limit_t
libvma.so.8:_ZN9ring_bond16send_lwip_bufferEiP11ibv_send_wr21vma_wr_tx_packet_attr
libvma.so.8:_ZN9ring_bond16send_ring_bufferEiP11ibv_send_wr21vma_wr_tx_packet_attr
libvma.so.8:_ZN9ring_bond17get_max_tx_inlineEv
libvma.so.8:_ZN9ring_bond17socketxtreme_pollEP16vma_completion_tji
libvma.so.8:_ZN9ring_bond18drain_and_proccessEv
libvma.so.8:_ZN9ring_bond18mem_buf_tx_releaseEP14mem_buf_desc_tbb
libvma.so.8:_ZN9ring_bond18popup_active_ringsEv
libvma.so.8:_ZN9ring_bond19adapt_cq_moderationEv
libvma.so.8:_ZN9ring_bond20reclaim_recv_buffersEP10vma_list_tI14mem_buf_desc_tXadL_ZNS1_18buffer_node_offsetEvEEE
libvma.so.8:_ZN9ring_bond20reclaim_recv_buffersEP14mem_buf_desc_t
libvma.so.8:_ZN9ring_bond20request_notificationE9cq_type_tm
libvma.so.8:_ZN9ring_bond20update_max_tx_inlineEP10ring_slave
libvma.so.8:_ZN9ring_bond21devide_buffers_helperEP10vma_list_tI14mem_buf_desc_tXadL_ZNS1_18buffer_node_offsetEvEEES3_
libvma.so.8:_ZN9ring_bond21devide_buffers_helperEP14mem_buf_desc_tPS1_
libvma.so.8:_ZN9ring_bond21update_rx_channel_fdsEv
libvma.so.8:_ZN9ring_bond22inc_tx_retransmissionsEi
libvma.so.8:_ZN9ring_bond22is_ratelimit_supportedER16vma_rate_limit_t
libvma.so.8:_ZN9ring_bond25get_hw_dummy_send_supportEiP11ibv_send_wr
libvma.so.8:_ZN9ring_bond27poll_and_process_element_rxEPmPv
libvma.so.8:_ZN9ring_bond38mem_buf_desc_return_single_to_owner_txEP14mem_buf_desc_t
libvma.so.8:_ZN9ring_bond41wait_for_notification_and_process_elementEiPmPv
libvma.so.8:_ZN9ring_bond7restartEv
libvma.so.8:_ZN9ring_bond9is_memberEP10ring_slave
libvma.so.8:_ZN9ring_bond9print_valEv
libvma.so.8:_ZN9ring_bondC1Ei
libvma.so.8:_ZN9ring_bondC2Ei
libvma.so.8:_ZN9ring_bondD0Ev
libvma.so.8:_ZN9ring_bondD1Ev
libvma.so.8:_ZN9ring_bondD2Ev
libvma.so.8:_ZN9route_val7set_mtuEj
libvma.so.8:_ZN9route_val7set_strEv
libvma.so.8:_ZN9route_val9print_valEv
libvma.so.8:_ZN9route_valC1Ev
libvma.so.8:_ZN9route_valC2Ev
libvma.so.8:_ZN9send_dataC1EPK9send_info
libvma.so.8:_ZN9send_dataC2EPK9send_info
libvma.so.8:_ZN9send_dataD0Ev
libvma.so.8:_ZN9send_dataD1Ev
libvma.so.8:_ZN9send_dataD2Ev
libvma.so.8:_ZN9vma_errorC1EPKcS1_S1_ii
libvma.so.8:_ZN9vma_errorC2EPKcS1_S1_ii
libvma.so.8:_ZN9vma_errorD0Ev
libvma.so.8:_ZN9vma_errorD1Ev
libvma.so.8:_ZN9vma_errorD2Ev
libvma.so.8:_ZNK10IPoIB_addr6to_strB5cxx11Ev
libvma.so.8:_ZNK10L2_address7compareERKS_
libvma.so.8:_ZNK11neigh_entry12event_to_strENS_7event_tE
libvma.so.8:_ZNK11neigh_entry12state_to_strENS_7state_tE
libvma.so.8:_ZNK11neigh_entry6to_strB5cxx11Ev
libvma.so.8:_ZNK12sockinfo_tcp20get_syn_received_pcbERK10flow_tuple
libvma.so.8:_ZNK13link_nl_event6to_strB5cxx11Ev
libvma.so.8:_ZNK13netlink_event6to_strB5cxx11Ev
libvma.so.8:_ZNK13vma_allocator19find_lkey_by_ib_ctxEP14ib_ctx_handler
libvma.so.8:_ZNK13vma_allocator21find_ibv_mr_by_ib_ctxEP14ib_ctx_handler
libvma.so.8:_ZNK14neigh_nl_event6to_strB5cxx11Ev
libvma.so.8:_ZNK14route_nl_event6to_strB5cxx11Ev
libvma.so.8:_ZNK17netlink_link_info17get_operstate2strB5cxx11Ev
libvma.so.8:_ZNK6cq_mgr11prep_ibv_cqERi
libvma.so.8:_ZNK8ETH_addr6to_strB5cxx11Ev
libvma.so.8:_ZNK9dst_entry14get_flow_tupleEv
libvma.so.8:_ZNK9dst_entry22get_obs_transport_typeEv
libvma.so.8:_ZNK9vma_error4whatEv
libvma.so.8:_ZThn1000_N8neigh_ib23handle_event_ibverbs_cbEPvS0_
libvma.so.8:_ZThn1000_N8neigh_ibD0Ev
libvma.so.8:_ZThn1000_N8neigh_ibD1Ev
libvma.so.8:_ZThn104_N12igmp_handlerD0Ev
libvma.so.8:_ZThn104_N12igmp_handlerD1Ev
libvma.so.8:_ZThn112_N11neigh_entryD0Ev
libvma.so.8:_ZThn112_N11neigh_entryD1Ev
libvma.so.8:_ZThn112_N11route_entryD0Ev
libvma.so.8:_ZThn112_N11route_entryD1Ev
libvma.so.8:_ZThn112_N16net_device_entryD0Ev
libvma.so.8:_ZThn112_N16net_device_entryD1Ev
libvma.so.8:_ZThn112_N8neigh_ibD0Ev
libvma.so.8:_ZThn112_N8neigh_ibD1Ev
libvma.so.8:_ZThn112_N9neigh_ethD0Ev
libvma.so.8:_ZThn112_N9neigh_ethD1Ev
libvma.so.8:_ZThn112_NK11neigh_entry6to_strB5cxx11Ev
libvma.so.8:_ZThn120_N11neigh_entry9clean_objEv
libvma.so.8:_ZThn120_N11neigh_entryD0Ev
libvma.so.8:_ZThn120_N11neigh_entryD1Ev
libvma.so.8:_ZThn120_N11route_entryD0Ev
libvma.so.8:_ZThn120_N11route_entryD1Ev
libvma.so.8:_ZThn120_N16net_device_entryD0Ev
libvma.so.8:_ZThn120_N16net_device_entryD1Ev
libvma.so.8:_ZThn120_N8neigh_ibD0Ev
libvma.so.8:_ZThn120_N8neigh_ibD1Ev
libvma.so.8:_ZThn120_N9neigh_ethD0Ev
libvma.so.8:_ZThn120_N9neigh_ethD1Ev
libvma.so.8:_ZThn128_N15neigh_table_mgr9notify_cbEP5event
libvma.so.8:_ZThn128_N15neigh_table_mgrD0Ev
libvma.so.8:_ZThn128_N15neigh_table_mgrD1Ev
libvma.so.8:_ZThn128_N20net_device_table_mgr9notify_cbEP5event
libvma.so.8:_ZThn128_N20net_device_table_mgrD0Ev
libvma.so.8:_ZThn128_N20net_device_table_mgrD1Ev
libvma.so.8:_ZThn1392680_N15route_table_mgr16create_new_entryE20route_rule_table_keyPK8observer
libvma.so.8:_ZThn1392680_N15route_table_mgrD0Ev
libvma.so.8:_ZThn1392680_N15route_table_mgrD1Ev
libvma.so.8:_ZThn1392688_N15route_table_mgrD0Ev
libvma.so.8:_ZThn1392688_N15route_table_mgrD1Ev
libvma.so.8:_ZThn1392808_N15route_table_mgr9notify_cbEP5event
libvma.so.8:_ZThn1392808_N15route_table_mgrD0Ev
libvma.so.8:_ZThn1392808_N15route_table_mgrD1Ev
libvma.so.8:_ZThn1425448_N14rule_table_mgr16create_new_entryE20route_rule_table_keyPK8observer
libvma.so.8:_ZThn160_N12sockinfo_tcp11rx_input_cbEP14mem_buf_desc_tPv
libvma.so.8:_ZThn160_N12sockinfo_tcpD0Ev
libvma.so.8:_ZThn160_N12sockinfo_tcpD1Ev
libvma.so.8:_ZThn160_N12sockinfo_udp14rx_add_ring_cbER24flow_tuple_with_local_ifP4ringb
libvma.so.8:_ZThn160_N12sockinfo_udp14rx_del_ring_cbER24flow_tuple_with_local_ifP4ringb
libvma.so.8:_ZThn160_N12sockinfo_udpD0Ev
libvma.so.8:_ZThn160_N12sockinfo_udpD1Ev
libvma.so.8:_ZThn160_N16net_device_entry23handle_event_ibverbs_cbEPvS0_
libvma.so.8:_ZThn160_N16net_device_entryD0Ev
libvma.so.8:_ZThn160_N16net_device_entryD1Ev
libvma.so.8:_ZThn160_N8pipeinfo20handle_timer_expiredEPv
libvma.so.8:_ZThn160_N8pipeinfoD0Ev
libvma.so.8:_ZThn160_N8pipeinfoD1Ev
libvma.so.8:_ZThn160_N8sockinfo14rx_add_ring_cbER24flow_tuple_with_local_ifP4ringb
libvma.so.8:_ZThn160_N8sockinfo14rx_del_ring_cbER24flow_tuple_with_local_ifP4ringb
libvma.so.8:_ZThn160_N8sockinfoD0Ev
libvma.so.8:_ZThn160_N8sockinfoD1Ev
libvma.so.8:_ZThn168_N11route_entry9notify_cbEv
libvma.so.8:_ZThn168_N11route_entryD0Ev
libvma.so.8:_ZThn168_N11route_entryD1Ev
libvma.so.8:_ZThn168_N12sockinfo_tcpD0Ev
libvma.so.8:_ZThn168_N12sockinfo_tcpD1Ev
libvma.so.8:_ZThn168_N12sockinfo_udpD0Ev
libvma.so.8:_ZThn168_N12sockinfo_udpD1Ev
libvma.so.8:_ZThn168_N16net_device_entry20handle_timer_expiredEPv
libvma.so.8:_ZThn168_N16net_device_entryD0Ev
libvma.so.8:_ZThn168_N16net_device_entryD1Ev
libvma.so.8:_ZThn168_N8sockinfoD0Ev
libvma.so.8:_ZThn168_N8sockinfoD1Ev
libvma.so.8:_ZThn176_N11neigh_entry23handle_event_rdma_cm_cbEP13rdma_cm_event
libvma.so.8:_ZThn176_N11neigh_entryD0Ev
libvma.so.8:_ZThn176_N11neigh_entryD1Ev
libvma.so.8:_ZThn176_N12sockinfo_tcpD0Ev
libvma.so.8:_ZThn176_N12sockinfo_tcpD1Ev
libvma.so.8:_ZThn176_N12sockinfo_udpD0Ev
libvma.so.8:_ZThn176_N12sockinfo_udpD1Ev
libvma.so.8:_ZThn176_N8neigh_ibD0Ev
libvma.so.8:_ZThn176_N8neigh_ibD1Ev
libvma.so.8:_ZThn176_N8sockinfoD0Ev
libvma.so.8:_ZThn176_N8sockinfoD1Ev
libvma.so.8:_ZThn176_N9neigh_ethD0Ev
libvma.so.8:_ZThn176_N9neigh_ethD1Ev
libvma.so.8:_ZThn184_N11neigh_entry20handle_timer_expiredEPv
libvma.so.8:_ZThn184_N11neigh_entryD0Ev
libvma.so.8:_ZThn184_N11neigh_entryD1Ev
libvma.so.8:_ZThn184_N8neigh_ib20handle_timer_expiredEPv
libvma.so.8:_ZThn184_N8neigh_ibD0Ev
libvma.so.8:_ZThn184_N8neigh_ibD1Ev
libvma.so.8:_ZThn184_N9neigh_ethD0Ev
libvma.so.8:_ZThn184_N9neigh_ethD1Ev
libvma.so.8:_ZThn1872_N17net_device_val_ibD0Ev
libvma.so.8:_ZThn1872_N17net_device_val_ibD1Ev
libvma.so.8:_ZThn1880_N17net_device_val_ibD0Ev
libvma.so.8:_ZThn1880_N17net_device_val_ibD1Ev
libvma.so.8:_ZThn2304_N12sockinfo_tcp20handle_timer_expiredEPv
libvma.so.8:_ZThn2304_N12sockinfo_tcpD0Ev
libvma.so.8:_ZThn2304_N12sockinfo_tcpD1Ev
libvma.so.8:_ZThn24_N13dst_entry_tcpD0Ev
libvma.so.8:_ZThn24_N13dst_entry_tcpD1Ev
libvma.so.8:_ZThn24_N13dst_entry_udpD0Ev
libvma.so.8:_ZThn24_N13dst_entry_udpD1Ev
libvma.so.8:_ZThn24_N15ip_frag_manager20handle_timer_expiredEPv
libvma.so.8:_ZThn24_N15ip_frag_managerD0Ev
libvma.so.8:_ZThn24_N15ip_frag_managerD1Ev
libvma.so.8:_ZThn24_N16dst_entry_udp_mcD0Ev
libvma.so.8:_ZThn24_N16dst_entry_udp_mcD1Ev
libvma.so.8:_ZThn24_N9dst_entryD0Ev
libvma.so.8:_ZThn24_N9dst_entryD1Ev
libvma.so.8:_ZThn32_N13dst_entry_tcpD0Ev
libvma.so.8:_ZThn32_N13dst_entry_tcpD1Ev
libvma.so.8:_ZThn32_N13dst_entry_udpD0Ev
libvma.so.8:_ZThn32_N13dst_entry_udpD1Ev
libvma.so.8:_ZThn32_N16dst_entry_udp_mcD0Ev
libvma.so.8:_ZThn32_N16dst_entry_udp_mcD1Ev
libvma.so.8:_ZThn32_N9dst_entry9notify_cbEv
libvma.so.8:_ZThn32_N9dst_entryD0Ev
libvma.so.8:_ZThn32_N9dst_entryD1Ev
libvma.so.8:_ZThn32_NK9dst_entry22get_obs_transport_typeEv
libvma.so.8:_ZThn56_N13fd_collection20handle_timer_expiredEPv
libvma.so.8:_ZThn56_N13fd_collectionD0Ev
libvma.so.8:_ZThn56_N13fd_collectionD1Ev
libvma.so.8:_ZThn56_N9epfd_info9clean_objEv
libvma.so.8:_ZThn56_N9epfd_infoD0Ev
libvma.so.8:_ZThn56_N9epfd_infoD1Ev
libvma.so.8:_ZThn64_N12igmp_handler9clean_objEv
libvma.so.8:_ZThn64_N12igmp_handlerD0Ev
libvma.so.8:_ZThn64_N12igmp_handlerD1Ev
libvma.so.8:_ZThn72_N9epfd_infoD0Ev
libvma.so.8:_ZThn72_N9epfd_infoD1Ev
libvma.so.8:_ZThn80_N12igmp_handlerD0Ev
libvma.so.8:_ZThn80_N12igmp_handlerD1Ev
libvma.so.8:_ZThn8_N12igmp_handlerD0Ev
libvma.so.8:_ZThn8_N12igmp_handlerD1Ev
libvma.so.8:_ZThn8_N14time_converter9clean_objEv
libvma.so.8:_ZThn8_N15neigh_table_mgrD0Ev
libvma.so.8:_ZThn8_N15neigh_table_mgrD1Ev
libvma.so.8:_ZThn8_N20net_device_table_mgr20handle_timer_expiredEPv
libvma.so.8:_ZThn8_N20net_device_table_mgrD0Ev
libvma.so.8:_ZThn8_N20net_device_table_mgrD1Ev
libvma.so.8:_ZThn8_N21tcp_timers_collection9clean_objEv
libvma.so.8:_ZThn8_N21tcp_timers_collectionD0Ev
libvma.so.8:_ZThn8_N21tcp_timers_collectionD1Ev
libvma.so.8:__read_chk
libvma.so.8:__recv_chk
libvma.so.8:__recvfrom_chk
libvma.so.8:__res_iclose
libvma.so.8:__vma_config_empty
libvma.so.8:__vma_dump_address_port_rule_config_state
libvma.so.8:__vma_free_resources
libvma.so.8:__vma_match_by_program
libvma.so.8:__vma_match_program_name
libvma.so.8:__vma_match_tcp_client
libvma.so.8:__vma_match_tcp_server
libvma.so.8:__vma_match_udp_connect
libvma.so.8:__vma_match_udp_receiver
libvma.so.8:__vma_match_udp_sender
libvma.so.8:__vma_match_user_defined_id
libvma.so.8:__vma_parse_config_file
libvma.so.8:__vma_parse_config_line
libvma.so.8:__vma_print_conf_file
libvma.so.8:__vma_sockaddr_to_vma
libvma.so.8:accept
libvma.so.8:accept4
libvma.so.8:bind
libvma.so.8:cc_ack_received
libvma.so.8:cc_cong_signal
libvma.so.8:cc_conn_init
libvma.so.8:cc_destroy
libvma.so.8:cc_init
libvma.so.8:cc_post_recovery
libvma.so.8:close
libvma.so.8:connect
libvma.so.8:creat
libvma.so.8:daemon
libvma.so.8:dup
libvma.so.8:dup2
libvma.so.8:epoll_create
libvma.so.8:epoll_create1
libvma.so.8:epoll_ctl
libvma.so.8:epoll_pwait
libvma.so.8:epoll_wait
libvma.so.8:fcntl
libvma.so.8:fork
libvma.so.8:from_int
libvma.so.8:from_str
libvma.so.8:get_color
libvma.so.8:getpeername
libvma.so.8:getsockname
libvma.so.8:getsockopt
libvma.so.8:gettid
libvma.so.8:ioctl
libvma.so.8:libvma_yy_create_buffer
libvma.so.8:libvma_yy_delete_buffer
libvma.so.8:libvma_yy_flush_buffer
libvma.so.8:libvma_yy_scan_buffer
libvma.so.8:libvma_yy_scan_bytes
libvma.so.8:libvma_yy_scan_string
libvma.so.8:libvma_yy_switch_to_buffer
libvma.so.8:libvma_yyalloc
libvma.so.8:libvma_yyerror
libvma.so.8:libvma_yyfree
libvma.so.8:libvma_yyget_debug
libvma.so.8:libvma_yyget_in
libvma.so.8:libvma_yyget_leng
libvma.so.8:libvma_yyget_lineno
libvma.so.8:libvma_yyget_out
libvma.so.8:libvma_yyget_text
libvma.so.8:libvma_yylex
libvma.so.8:libvma_yylex_destroy
libvma.so.8:libvma_yyparse
libvma.so.8:libvma_yypop_buffer_state
libvma.so.8:libvma_yypush_buffer_state
libvma.so.8:libvma_yyrealloc
libvma.so.8:libvma_yyrestart
libvma.so.8:libvma_yyset_debug
libvma.so.8:libvma_yyset_in
libvma.so.8:libvma_yyset_lineno
libvma.so.8:libvma_yyset_out
libvma.so.8:libvma_yywrap
libvma.so.8:link_event_callback
libvma.so.8:listen
libvma.so.8:lwip_init
libvma.so.8:main_destroy
libvma.so.8:main_init
libvma.so.8:neigh_event_callback
libvma.so.8:open
libvma.so.8:pbuf_cat
libvma.so.8:pbuf_clen
libvma.so.8:pbuf_free
libvma.so.8:pbuf_header
libvma.so.8:pbuf_realloc
libvma.so.8:pbuf_ref
libvma.so.8:pbuf_split_64k
libvma.so.8:pipe
libvma.so.8:poll
libvma.so.8:ppoll
libvma.so.8:printf_backtrace
libvma.so.8:pselect
libvma.so.8:read
libvma.so.8:readv
libvma.so.8:recv
libvma.so.8:recvfrom
libvma.so.8:recvmmsg
libvma.so.8:recvmsg
libvma.so.8:register_ip_output
libvma.so.8:register_ip_route_mtu
libvma.so.8:register_sys_now
libvma.so.8:register_tcp_seg_alloc
libvma.so.8:register_tcp_seg_free
libvma.so.8:register_tcp_state_observer
libvma.so.8:register_tcp_tx_pbuf_alloc
libvma.so.8:register_tcp_tx_pbuf_free
libvma.so.8:route_event_callback
libvma.so.8:select
libvma.so.8:send
libvma.so.8:sendfile
libvma.so.8:sendfile64
libvma.so.8:sendmmsg
libvma.so.8:sendmsg
libvma.so.8:sendto
libvma.so.8:setsockopt
libvma.so.8:shutdown
libvma.so.8:sigaction
libvma.so.8:sock_redirect_exit
libvma.so.8:sock_redirect_lib_load_constructor
libvma.so.8:sock_redirect_lib_load_destructor
libvma.so.8:sock_redirect_main
libvma.so.8:socket
libvma.so.8:socketpair
libvma.so.8:to_str
libvma.so.8:vfork
libvma.so.8:vlog_start
libvma.so.8:vlog_stop
libvma.so.8:vma_add_conf_rule
libvma.so.8:vma_add_ring_profile
libvma.so.8:vma_cyclic_buffer_read
libvma.so.8:vma_dereg_mr_on_ring
libvma.so.8:vma_dump_fd_stats
libvma.so.8:vma_free_packets
libvma.so.8:vma_get_mem_info
libvma.so.8:vma_get_ring_direct_descriptors
libvma.so.8:vma_get_socket_netowrk_header
libvma.so.8:vma_get_socket_rings_fds
libvma.so.8:vma_get_socket_rings_num
libvma.so.8:vma_get_socket_tx_ring_fd
libvma.so.8:vma_recvfrom_zcopy
libvma.so.8:vma_reg_mr_on_ring
libvma.so.8:vma_register_recv_callback
libvma.so.8:vma_socketxtreme_free_vma_buff
libvma.so.8:vma_socketxtreme_free_vma_packets
libvma.so.8:vma_socketxtreme_poll
libvma.so.8:vma_socketxtreme_ref_vma_buff
libvma.so.8:vma_thread_offload
libvma.so.8:write
libvma.so.8:writev
